(dp1
S'output'
p2
S"<type 'exceptions.AttributeError'> 'Row' object has no attribute 'user'"
p3
sS'layer'
p4
S'/home/chandan/web2py/applications/imagine/views/default/profile.html'
p5
sS'code'
p6
S'response.write(\'<html>\\n    <head>\\n        <title>\', escape=False)\nresponse.write(row.first_name.capitalize()+\' \'+row.last_name.capitalize())\nresponse.write(\'</title>\\n        <link rel="stylesheet" type="text/css" href="\', escape=False)\nresponse.write(URL(\'static\', \'css/profileLayout.css\'))\nresponse.write(\'" />\\n        <link rel="shortcut icon" href="\', escape=False)\nresponse.write(URL(\'static\', \'images/homeImage2.png\'))\nresponse.write(\'" />\\n        \', escape=False)\nresponse.write(\'<script type="text/javascript"><!--\\n    // These variables are used by the web2py_ajax_init function in web2py_ajax.js (which is loaded below).\\n    var w2p_ajax_confirm_message = "\', escape=False)\nresponse.write(T(\'Are you sure you want to delete this object?\'))\nresponse.write(\'";\\n    var w2p_ajax_disable_with_message = "\', escape=False)\nresponse.write(T(\'Working...\'))\nresponse.write(\'";\\n    var w2p_ajax_date_format = "\', escape=False)\nresponse.write(T(\'%Y-%m-%d\'))\nresponse.write(\'";\\n    var w2p_ajax_datetime_format = "\', escape=False)\nresponse.write(T(\'%Y-%m-%d %H:%M:%S\'))\nresponse.write(\'";\\n    var ajax_error_500 = \\\'\', escape=False)\nresponse.write(T.M(\'An error occured, please [[reload %s]] the page\') % URL(args=request.args, vars=request.get_vars))\nresponse.write("\'\\n    //--></script>\\n", escape=False)\nresponse.files.insert(0,URL(\'static\',\'js/jquery.js\'))\nresponse.files.insert(1,URL(\'static\',\'css/calendar.css\'))\nresponse.files.insert(2,URL(\'static\',\'js/calendar.js\'))\nresponse.files.insert(3,URL(\'static\',\'js/web2py.js\'))\nresponse.include_meta()\nresponse.include_files()\nresponse.write(\'\\n\', escape=False)\nresponse.write(\'\\n    </head>\\n    <body>\\n        <div id="navbar">\\n            <div id="sitename"><div class="change" id="left_margin">im</div><div class="normal">a</div><div class="change">g</div><div class="normal">ine</div></div>\\n            <div id="searchbox"></div>\\n            <div id="links">\\n                <div id="pro_link" class="link_class"><a href="http://127.0.0.1:8000/imagine/default/profile" title="Profile">Profile</a></div>\\n                <div id="logo_link" class="link_class"><a href="http://127.0.0.1:8000/imagine/logo/index" title="Logo">Logo</a></div>\\n                <div id="paint_link" class="link_class"><a href="#" title="Paint">Paint</a></div>\\n                <div id="logout_link" class="link_class"><a href="http://127.0.0.1:8000/imagine/default/user/logout" title="Logout">Logout</a></div>\\n            </div>\\n        </div>\\n        <div id="include_block">\\n            \', escape=False)\nresponse.write(\'\\n<link href="\', escape=False)\nresponse.write(URL(\'static\', \'css/profile.css\'))\nresponse.write(\'" rel="stylesheet" type="text/css" />\\n\\n<div id="profile">\\n    <div id="propic">\\n        <img src=\', escape=False)\nresponse.write(row.user.pro_pic)\nresponse.write(\' alt="Profile Picture" />\\n        <!--img src="../static/images/default_pro_pic.png" alt="Profile Picture" /-->\\n    </div>\\n    <div id="detail">\\n            <div class="center_align">\', escape=False)\nresponse.write(row.first_name.capitalize()+\' \'+row.last_name.capitalize())\nresponse.write(\'</div>\\n            <div class="center_align">\', escape=False)\nresponse.write(row.email)\nresponse.write(\'</div>\\n            <div class="center_align">\', escape=False)\nresponse.write(row.username)\nresponse.write(\'</div>\\n        </table>\\n    </div>\\n    <div id="editbutton">\\n        <a href="\', escape=False)\nresponse.write(URL(\'default\', \'editprofile\'))\nresponse.write(\'">\\n            <img src="\', escape=False)\nresponse.write(URL(\'static\', \'images/pencil.svg\'))\nresponse.write(\'" alt="edit" />\\n            <span id="edittext">Edit</span>\\n        </a>\\n    </div>\\n    <div id="rule"></div>\\n</div>\\n\\n<div id="mainbody">\\n    <div id="logotab"></div>\\n    <div id="painttab"></div>\\n</div>\\n<!--http://127.0.0.1:8000/imagine/default/download/auth_user.pro_pic.adc1a1b72f5af3df.3934343533395f313430303530393130333439343133385f3736383130383737305f6e2e6a7067.jpg-->\', escape=False)\nresponse.write(\'\\n        </div>\\n    </body>\\n</html>\', escape=False)'
p7
sS'snapshot'
p8
(dp9
sS'traceback'
p10
S'Traceback (most recent call last):\n  File "/home/chandan/web2py/gluon/restricted.py", line 217, in restricted\n    exec ccode in environment\n  File "/home/chandan/web2py/applications/imagine/views/default/profile.html", line 30, in <module>\n  File "/home/chandan/web2py/gluon/dal.py", line 7343, in __getitem__\n    raise ae\nAttributeError: \'Row\' object has no attribute \'user\'\n'
p11
s.