(dp1
S'output'
p2
S"<type 'exceptions.IndentationError'> unindent does not match any outer indentation level (logo.py, line 5)"
p3
sS'layer'
p4
S'/home/chandan/web2py/applications/imagine/controllers/logo.py'
p5
sS'code'
p6
S'@auth.requires_login()\ndef index():\n  #  editimage = request.vars.edit\n  \teditimage = session.editstring\n    print editimage\n    print \'end\'\n    username = session.auth.user.username\n    row = db(db.auth_user.username == username).select()\n    return dict(row = row[0], editimage = editimage)\n\n@auth.requires_login()\ndef saveimage():\n    title = request.vars.title\n    imgstring = request.vars.imgstring\n    imgtype = request.vars.imgtype\n    print title, imgstring, imgtype\n    db.user_sketches.insert(username=session.auth.user.username, imgtype=imgtype, datastring=imgstring, title=title)\n    return "True"\nresponse._vars=response._caller(index)\n'
p7
sS'snapshot'
p8
(dp9
S'exception'
p10
(dp11
S'__getslice__'
p12
S"<method-wrapper '__getslice__' of exceptions.IndentationError object>"
p13
sS'text'
p14
S"'    print editimage\\n'"
p15
sS'__str__'
p16
S"<method-wrapper '__str__' of exceptions.IndentationError object>"
p17
sS'__reduce__'
p18
S'<built-in method __reduce__ of exceptions.IndentationError object>'
p19
sS'__dict__'
p20
S'{}'
p21
sS'__sizeof__'
p22
S'<built-in method __sizeof__ of exceptions.IndentationError object>'
p23
sS'__init__'
p24
S"<method-wrapper '__init__' of exceptions.IndentationError object>"
p25
sS'__setattr__'
p26
S"<method-wrapper '__setattr__' of exceptions.IndentationError object>"
p27
sS'__reduce_ex__'
p28
S'<built-in method __reduce_ex__ of exceptions.IndentationError object>'
p29
sS'__new__'
p30
S'<built-in method __new__ of type object>'
p31
sS'__format__'
p32
S'<built-in method __format__ of exceptions.IndentationError object>'
p33
sS'__class__'
p34
S"<type 'exceptions.IndentationError'>"
p35
sS'filename'
p36
S"'/home/chandan/web2py/applications/imagine/controllers/logo.py'"
p37
sS'lineno'
p38
S'5'
sS'msg'
p39
S"'unindent does not match any outer indentation level'"
p40
sS'__doc__'
p41
S"'Improper indentation.'"
p42
sS'__getitem__'
p43
S"<method-wrapper '__getitem__' of exceptions.IndentationError object>"
p44
sS'__setstate__'
p45
S'<built-in method __setstate__ of exceptions.IndentationError object>'
p46
sS'__getattribute__'
p47
S"<method-wrapper '__getattribute__' of exceptions.IndentationError object>"
p48
sS'print_file_and_line'
p49
S'None'
p50
sS'args'
p51
S"('unindent does not match any outer indentation level', ('/home/chandan/web2py/applications/imagine/controllers/logo.py', 5, 20, '    print editimage\\n'))"
p52
sS'__subclasshook__'
p53
S'<built-in method __subclasshook__ of type object>'
p54
sS'offset'
p55
S'20'
p56
sS'__unicode__'
p57
S'<built-in method __unicode__ of exceptions.IndentationError object>'
p58
sS'__delattr__'
p59
S"<method-wrapper '__delattr__' of exceptions.IndentationError object>"
p60
sS'__repr__'
p61
S"<method-wrapper '__repr__' of exceptions.IndentationError object>"
p62
sS'__hash__'
p63
S"<method-wrapper '__hash__' of exceptions.IndentationError object>"
p64
ssS'evalue'
p65
S'unindent does not match any outer indentation level (logo.py, line 5)'
p66
sS'request'
p67
cgluon.html
XML_unpickle
p68
(S's\xd8N\x00\x00<div><table><tr><td style="font-weight:bold;vertical-align:top;">ajax</td><td style="vertical-align:top;">:</td><td><div>True</div></td></tr><tr><td style="font-weight:bold;vertical-align:top;">application</td><td style="vertical-align:top;">:</td><td><div>imagine</div></td></tr><tr><td style="font-weight:bold;vertical-align:top;">args</td><td style="vertical-align:top;">:</td><td><div><table></table></div></td></tr><tr><td style="font-weight:bold;vertical-align:top;">cid</td><td style="vertical-align:top;">:</td><td><div>None</div></td></tr><tr><td style="font-weight:bold;vertical-align:top;">client</td><td style="vertical-align:top;">:</td><td><div>127.0.0.1</div></td></tr><tr><td style="font-weight:bold;vertical-align:top;">controller</td><td style="vertical-align:top;">:</td><td><div>logo</div></td></tr><tr><td style="font-weight:bold;vertical-align:top;">cookies</td><td style="vertical-align:top;">:</td><td><div><table><tr><td style="font-weight:bold;vertical-align:top;">session_id_imagine</td><td style="vertical-align:top;">:</td><td><div>127.0.0.1-42d985ff-c567-4921-882b-9845184777ee<table><tr><td style="font-weight:bold;vertical-align:top;">comment</td><td style="vertical-align:top;">:</td><td><div></div></td></tr><tr><td style="font-weight:bold;vertical-align:top;">domain</td><td style="vertical-align:top;">:</td><td><div></div></td></tr><tr><td style="font-weight:bold;vertical-align:top;">expires</td><td style="vertical-align:top;">:</td><td><div></div></td></tr><tr><td style="font-weight:bold;vertical-align:top;">httponly</td><td style="vertical-align:top;">:</td><td><div></div></td></tr><tr><td style="font-weight:bold;vertical-align:top;">max-age</td><td style="vertical-align:top;">:</td><td><div></div></td></tr><tr><td style="font-weight:bold;vertical-align:top;">path</td><td style="vertical-align:top;">:</td><td><div></div></td></tr><tr><td style="font-weight:bold;vertical-align:top;">secure</td><td style="vertical-align:top;">:</td><td><div></div></td></tr><tr><td style="font-weight:bold;vertical-align:top;">version</td><td style="vertical-align:top;">:</td><td><div></div></td></tr></table></div></td></tr></table></div></td></tr><tr><td style="font-weight:bold;vertical-align:top;">env</td><td style="vertical-align:top;">:</td><td><div><table><tr><td style="font-weight:bold;vertical-align:top;">HTTP_ACCEPT</td><td style="vertical-align:top;">:</td><td><div>*/*</div></td></tr><tr><td style="font-weight:bold;vertical-align:top;">HTTP_ACCEPT_ENCODING</td><td style="vertical-align:top;">:</td><td><div>gzip, deflate</div></td></tr><tr><td style="font-weight:bold;vertical-align:top;">HTTP_ACCEPT_LANGUAGE</td><td style="vertical-align:top;">:</td><td><div>en-US,en;q=0.5</div></td></tr><tr><td style="font-weight:bold;vertical-align:top;">HTTP_CONNECTION</td><td style="vertical-align:top;">:</td><td><div>keep-alive</div></td></tr><tr><td style="font-weight:bold;vertical-align:top;">HTTP_COOKIE</td><td style="vertical-align:top;">:</td><td><div>session_id_imagine=127.0.0.1-42d985ff-c567-4921-882b-9845184777ee</div></td></tr><tr><td style="font-weight:bold;vertical-align:top;">HTTP_HOST</td><td style="vertical-align:top;">:</td><td><div>127.0.0.1:8000</div></td></tr><tr><td style="font-weight:bold;vertical-align:top;">HTTP_REFERER</td><td style="vertical-align:top;">:</td><td><div>http://127.0.0.1:8000/imagine/default/profile</div></td></tr><tr><td style="font-weight:bold;vertical-align:top;">HTTP_USER_AGENT</td><td style="vertical-align:top;">:</td><td><div>Mozilla/5.0 (X11; Ubuntu; Linux x86_64; rv:28.0) Gecko/20100101 Firefox/28.0</div></td></tr><tr><td style="font-weight:bold;vertical-align:top;">HTTP_X_REQUESTED_WITH</td><td style="vertical-align:top;">:</td><td><div>XMLHttpRequest</div></td></tr><tr><td style="font-weight:bold;vertical-align:top;">PATH_INFO</td><td style="vertical-align:top;">:</td><td><div>/imagine/logo/index</div></td></tr><tr><td style="font-weight:bold;vertical-align:top;">QUERY_STRING</td><td style="vertical-align:top;">:</td><td><div></div></td></tr><tr><td style="font-weight:bold;vertical-align:top;">REMOTE_ADDR</td><td style="vertical-align:top;">:</td><td><div>127.0.0.1</div></td></tr><tr><td style="font-weight:bold;vertical-align:top;">REMOTE_PORT</td><td style="vertical-align:top;">:</td><td><div>60683</div></td></tr><tr><td style="font-weight:bold;vertical-align:top;">REQUEST_METHOD</td><td style="vertical-align:top;">:</td><td><div>GET</div></td></tr><tr><td style="font-weight:bold;vertical-align:top;">SCRIPT_NAME</td><td style="vertical-align:top;">:</td><td><div></div></td></tr><tr><td style="font-weight:bold;vertical-align:top;">SERVER_NAME</td><td style="vertical-align:top;">:</td><td><div>chandan-Inspiron-3537</div></td></tr><tr><td style="font-weight:bold;vertical-align:top;">SERVER_PORT</td><td style="vertical-align:top;">:</td><td><div>8000</div></td></tr><tr><td style="font-weight:bold;vertical-align:top;">SERVER_PROTOCOL</td><td style="vertical-align:top;">:</td><td><div>HTTP/1.1</div></td></tr><tr><td style="font-weight:bold;vertical-align:top;">SERVER_SOFTWARE</td><td style="vertical-align:top;">:</td><td><div>Rocket 1.2.6</div></td></tr><tr><td style="font-weight:bold;vertical-align:top;">app_folders</td><td style="vertical-align:top;">:</td><td><div>set([&#x27;/home/chandan/web2py/applications/imagine/&#x27;])</div></td></tr><tr><td style="font-weight:bold;vertical-align:top;">applications_parent</td><td style="vertical-align:top;">:</td><td><div>/home/chandan/web2py</div></td></tr><tr><td style="font-weight:bold;vertical-align:top;">cmd_args</td><td style="vertical-align:top;">:</td><td><div><table></table></div></td></tr><tr><td style="font-weight:bold;vertical-align:top;">cmd_options</td><td style="vertical-align:top;">:</td><td><div>&lt;Values at 0x18cbab8: {&#x27;verbose&#x27;: False, &#x27;ip&#x27;: &#x27;127.0.0.1&#x27;, &#x27;debuglevel&#x27;: 30, &#x27;with_scheduler&#x27;: False, &#x27;ips&#x27;: [&#x27;127.0.1.1&#x27;], &#x27;shutdown_timeout&#x27;: 5, &#x27;taskbar&#x27;: False, &#x27;with_coverage&#x27;: False, &#x27;port&#x27;: 8000, &#x27;maxthreads&#x27;: None, &#x27;softcron&#x27;: False, &#x27;server_name&#x27;: &#x27;chandan-Inspiron-3537&#x27;, &#x27;bpython&#x27;: False, &#x27;nogui&#x27;: True, &#x27;pid_filename&#x27;: &#x27;httpserver.pid&#x27;, &#x27;extcron&#x27;: False, &#x27;runcron&#x27;: False, &#x27;run_system_tests&#x27;: False, &#x27;test&#x27;: None, &#x27;folder&#x27;: &#x27;/home/chandan/web2py&#x27;, &#x27;config&#x27;: &#x27;&#x27;, &#x27;minthreads&#x27;: None, &#x27;shell&#x27;: None, &#x27;run&#x27;: &#x27;&#x27;, &#x27;log_filename&#x27;: &#x27;httpserver.log&#x27;, &#x27;profiler_dir&#x27;: None, &#x27;args&#x27;: [&#x27;&#x27;], &#x27;socket_timeout&#x27;: 5, &#x27;ssl_ca_certificate&#x27;: None, &#x27;scheduler&#x27;: None, &#x27;interfaces&#x27;: None, &#x27;ssl_private_key&#x27;: &#x27;&#x27;, &#x27;scheduler_groups&#x27;: None, &#x27;password&#x27;: &#x27;1234&#x27;, &#x27;request_queue_size&#x27;: 5, &#x27;ssl_certificate&#x27;: &#x27;&#x27;, &#x27;cronjob&#x27;: False, &#x27;numthreads&#x27;: None, &#x27;quiet&#x27;: False, &#x27;import_models&#x27;: False, &#x27;timeout&#x27;: 10, &#x27;plain&#x27;: False, &#x27;nobanner&#x27;: False}&gt;</div></td></tr><tr><td style="font-weight:bold;vertical-align:top;">db_sessions</td><td style="vertical-align:top;">:</td><td><div>set([])</div></td></tr><tr><td style="font-weight:bold;vertical-align:top;">debugging</td><td style="vertical-align:top;">:</td><td><div>False</div></td></tr><tr><td style="font-weight:bold;vertical-align:top;">gluon_parent</td><td style="vertical-align:top;">:</td><td><div>/home/chandan/web2py</div></td></tr><tr><td style="font-weight:bold;vertical-align:top;">http_accept</td><td style="vertical-align:top;">:</td><td><div>*/*</div></td></tr><tr><td style="font-weight:bold;vertical-align:top;">http_accept_encoding</td><td style="vertical-align:top;">:</td><td><div>gzip, deflate</div></td></tr><tr><td style="font-weight:bold;vertical-align:top;">http_accept_language</td><td style="vertical-align:top;">:</td><td><div>en-US,en;q=0.5</div></td></tr><tr><td style="font-weight:bold;vertical-align:top;">http_connection</td><td style="vertical-align:top;">:</td><td><div>keep-alive</div></td></tr><tr><td style="font-weight:bold;vertical-align:top;">http_cookie</td><td style="vertical-align:top;">:</td><td><div>session_id_imagine=127.0.0.1-42d985ff-c567-4921-882b-9845184777ee</div></td></tr><tr><td style="font-weight:bold;vertical-align:top;">http_host</td><td style="vertical-align:top;">:</td><td><div>127.0.0.1:8000</div></td></tr><tr><td style="font-weight:bold;vertical-align:top;">http_referer</td><td style="vertical-align:top;">:</td><td><div>http://127.0.0.1:8000/imagine/default/profile</div></td></tr><tr><td style="font-weight:bold;vertical-align:top;">http_user_agent</td><td style="vertical-align:top;">:</td><td><div>Mozilla/5.0 (X11; Ubuntu; Linux x86_64; rv:28.0) Gecko/20100101 Firefox/28.0</div></td></tr><tr><td style="font-weight:bold;vertical-align:top;">http_x_requested_with</td><td style="vertical-align:top;">:</td><td><div>XMLHttpRequest</div></td></tr><tr><td style="font-weight:bold;vertical-align:top;">is_jython</td><td style="vertical-align:top;">:</td><td><div>False</div></td></tr><tr><td style="font-weight:bold;vertical-align:top;">is_pypy</td><td style="vertical-align:top;">:</td><td><div>False</div></td></tr><tr><td style="font-weight:bold;vertical-align:top;">is_source</td><td style="vertical-align:top;">:</td><td><div>True</div></td></tr><tr><td style="font-weight:bold;vertical-align:top;">local_hosts</td><td style="vertical-align:top;">:</td><td><div><table><tr><td><div>chandan-Inspiron-3537</div></td></tr><tr><td><div>::1</div></td></tr><tr><td><div>127.0.1.1</div></td></tr><tr><td><div>::ffff:127.0.0.1</div></td></tr><tr><td><div>127.0.0.1</div></td></tr></table></div></td></tr><tr><td style="font-weight:bold;vertical-align:top;">path_info</td><td style="vertical-align:top;">:</td><td><div>/imagine/logo/index</div></td></tr><tr><td style="font-weight:bold;vertical-align:top;">query_string</td><td style="vertical-align:top;">:</td><td><div></div></td></tr><tr><td style="font-weight:bold;vertical-align:top;">remote_addr</td><td style="vertical-align:top;">:</td><td><div>127.0.0.1</div></td></tr><tr><td style="font-weight:bold;vertical-align:top;">remote_port</td><td style="vertical-align:top;">:</td><td><div>60683</div></td></tr><tr><td style="font-weight:bold;vertical-align:top;">request_method</td><td style="vertical-align:top;">:</td><td><div>GET</div></td></tr><tr><td style="font-weight:bold;vertical-align:top;">request_uri</td><td style="vertical-align:top;">:</td><td><div>/imagine/logo/index</div></td></tr><tr><td style="font-weight:bold;vertical-align:top;">script_name</td><td style="vertical-align:top;">:</td><td><div></div></td></tr><tr><td style="font-weight:bold;vertical-align:top;">server_name</td><td style="vertical-align:top;">:</td><td><div>chandan-Inspiron-3537</div></td></tr><tr><td style="font-weight:bold;vertical-align:top;">server_port</td><td style="vertical-align:top;">:</td><td><div>8000</div></td></tr><tr><td style="font-weight:bold;vertical-align:top;">server_protocol</td><td style="vertical-align:top;">:</td><td><div>HTTP/1.1</div></td></tr><tr><td style="font-weight:bold;vertical-align:top;">server_software</td><td style="vertical-align:top;">:</td><td><div>Rocket 1.2.6</div></td></tr><tr><td style="font-weight:bold;vertical-align:top;">web2py_path</td><td style="vertical-align:top;">:</td><td><div>/home/chandan/web2py</div></td></tr><tr><td style="font-weight:bold;vertical-align:top;">web2py_version</td><td style="vertical-align:top;">:</td><td><div>2.9.4-stable+timestamp.2014.03.05.04.44.09</div></td></tr><tr><td style="font-weight:bold;vertical-align:top;">wsgi.errors</td><td style="vertical-align:top;">:</td><td><div>&lt;open file &#x27;&lt;stderr&gt;&#x27;, mode &#x27;w&#x27; at 0x7f33c80991e0&gt;</div></td></tr><tr><td style="font-weight:bold;vertical-align:top;">wsgi.file_wrapper</td><td style="vertical-align:top;">:</td><td><div>&lt;class wsgiref.util.FileWrapper at 0x1882188&gt;</div></td></tr><tr><td style="font-weight:bold;vertical-align:top;">wsgi.input</td><td style="vertical-align:top;">:</td><td><div>&lt;socket._fileobject object at 0x7f33bc1f0d50&gt;</div></td></tr><tr><td style="font-weight:bold;vertical-align:top;">wsgi.multiprocess</td><td style="vertical-align:top;">:</td><td><div>False</div></td></tr><tr><td style="font-weight:bold;vertical-align:top;">wsgi.multithread</td><td style="vertical-align:top;">:</td><td><div>True</div></td></tr><tr><td style="font-weight:bold;vertical-align:top;">wsgi.run_once</td><td style="vertical-align:top;">:</td><td><div>False</div></td></tr><tr><td style="font-weight:bold;vertical-align:top;">wsgi.url_scheme</td><td style="vertical-align:top;">:</td><td><div>http</div></td></tr><tr><td style="font-weight:bold;vertical-align:top;">wsgi.version</td><td style="vertical-align:top;">:</td><td><div><table><tr><td><div>1</div></td></tr><tr><td><div>0</div></td></tr></table></div></td></tr><tr><td style="font-weight:bold;vertical-align:top;">wsgi_errors</td><td style="vertical-align:top;">:</td><td><div>&lt;open file &#x27;&lt;stderr&gt;&#x27;, mode &#x27;w&#x27; at 0x7f33c80991e0&gt;</div></td></tr><tr><td style="font-weight:bold;vertical-align:top;">wsgi_file_wrapper</td><td style="vertical-align:top;">:</td><td><div>&lt;class wsgiref.util.FileWrapper at 0x1882188&gt;</div></td></tr><tr><td style="font-weight:bold;vertical-align:top;">wsgi_input</td><td style="vertical-align:top;">:</td><td><div>&lt;socket._fileobject object at 0x7f33bc1f0d50&gt;</div></td></tr><tr><td style="font-weight:bold;vertical-align:top;">wsgi_multiprocess</td><td style="vertical-align:top;">:</td><td><div>False</div></td></tr><tr><td style="font-weight:bold;vertical-align:top;">wsgi_multithread</td><td style="vertical-align:top;">:</td><td><div>True</div></td></tr><tr><td style="font-weight:bold;vertical-align:top;">wsgi_run_once</td><td style="vertical-align:top;">:</td><td><div>False</div></td></tr><tr><td style="font-weight:bold;vertical-align:top;">wsgi_url_scheme</td><td style="vertical-align:top;">:</td><td><div>http</div></td></tr><tr><td style="font-weight:bold;vertical-align:top;">wsgi_version</td><td style="vertical-align:top;">:</td><td><div><table><tr><td><div>1</div></td></tr><tr><td><div>0</div></td></tr></table></div></td></tr></table></div></td></tr><tr><td style="font-weight:bold;vertical-align:top;">extension</td><td style="vertical-align:top;">:</td><td><div>html</div></td></tr><tr><td style="font-weight:bold;vertical-align:top;">folder</td><td style="vertical-align:top;">:</td><td><div>/home/chandan/web2py/applications/imagine/</div></td></tr><tr><td style="font-weight:bold;vertical-align:top;">function</td><td style="vertical-align:top;">:</td><td><div>index</div></td></tr><tr><td style="font-weight:bold;vertical-align:top;">global_settings</td><td style="vertical-align:top;">:</td><td><div><table><tr><td style="font-weight:bold;vertical-align:top;">app_folders</td><td style="vertical-align:top;">:</td><td><div>set([&#x27;/home/chandan/web2py/applications/imagine/&#x27;])</div></td></tr><tr><td style="font-weight:bold;vertical-align:top;">applications_parent</td><td style="vertical-align:top;">:</td><td><div>/home/chandan/web2py</div></td></tr><tr><td style="font-weight:bold;vertical-align:top;">cmd_args</td><td style="vertical-align:top;">:</td><td><div><table></table></div></td></tr><tr><td style="font-weight:bold;vertical-align:top;">cmd_options</td><td style="vertical-align:top;">:</td><td><div>&lt;Values at 0x18cbab8: {&#x27;verbose&#x27;: False, &#x27;ip&#x27;: &#x27;127.0.0.1&#x27;, &#x27;debuglevel&#x27;: 30, &#x27;with_scheduler&#x27;: False, &#x27;ips&#x27;: [&#x27;127.0.1.1&#x27;], &#x27;shutdown_timeout&#x27;: 5, &#x27;taskbar&#x27;: False, &#x27;with_coverage&#x27;: False, &#x27;port&#x27;: 8000, &#x27;maxthreads&#x27;: None, &#x27;softcron&#x27;: False, &#x27;server_name&#x27;: &#x27;chandan-Inspiron-3537&#x27;, &#x27;bpython&#x27;: False, &#x27;nogui&#x27;: True, &#x27;pid_filename&#x27;: &#x27;httpserver.pid&#x27;, &#x27;extcron&#x27;: False, &#x27;runcron&#x27;: False, &#x27;run_system_tests&#x27;: False, &#x27;test&#x27;: None, &#x27;folder&#x27;: &#x27;/home/chandan/web2py&#x27;, &#x27;config&#x27;: &#x27;&#x27;, &#x27;minthreads&#x27;: None, &#x27;shell&#x27;: None, &#x27;run&#x27;: &#x27;&#x27;, &#x27;log_filename&#x27;: &#x27;httpserver.log&#x27;, &#x27;profiler_dir&#x27;: None, &#x27;args&#x27;: [&#x27;&#x27;], &#x27;socket_timeout&#x27;: 5, &#x27;ssl_ca_certificate&#x27;: None, &#x27;scheduler&#x27;: None, &#x27;interfaces&#x27;: None, &#x27;ssl_private_key&#x27;: &#x27;&#x27;, &#x27;scheduler_groups&#x27;: None, &#x27;password&#x27;: &#x27;1234&#x27;, &#x27;request_queue_size&#x27;: 5, &#x27;ssl_certificate&#x27;: &#x27;&#x27;, &#x27;cronjob&#x27;: False, &#x27;numthreads&#x27;: None, &#x27;quiet&#x27;: False, &#x27;import_models&#x27;: False, &#x27;timeout&#x27;: 10, &#x27;plain&#x27;: False, &#x27;nobanner&#x27;: False}&gt;</div></td></tr><tr><td style="font-weight:bold;vertical-align:top;">db_sessions</td><td style="vertical-align:top;">:</td><td><div>set([])</div></td></tr><tr><td style="font-weight:bold;vertical-align:top;">debugging</td><td style="vertical-align:top;">:</td><td><div>False</div></td></tr><tr><td style="font-weight:bold;vertical-align:top;">gluon_parent</td><td style="vertical-align:top;">:</td><td><div>/home/chandan/web2py</div></td></tr><tr><td style="font-weight:bold;vertical-align:top;">is_jython</td><td style="vertical-align:top;">:</td><td><div>False</div></td></tr><tr><td style="font-weight:bold;vertical-align:top;">is_pypy</td><td style="vertical-align:top;">:</td><td><div>False</div></td></tr><tr><td style="font-weight:bold;vertical-align:top;">is_source</td><td style="vertical-align:top;">:</td><td><div>True</div></td></tr><tr><td style="font-weight:bold;vertical-align:top;">local_hosts</td><td style="vertical-align:top;">:</td><td><div><table><tr><td><div>chandan-Inspiron-3537</div></td></tr><tr><td><div>::1</div></td></tr><tr><td><div>127.0.1.1</div></td></tr><tr><td><div>::ffff:127.0.0.1</div></td></tr><tr><td><div>127.0.0.1</div></td></tr></table></div></td></tr><tr><td style="font-weight:bold;vertical-align:top;">web2py_version</td><td style="vertical-align:top;">:</td><td><div>2.9.4-stable+timestamp.2014.03.05.04.44.09</div></td></tr></table></div></td></tr><tr><td style="font-weight:bold;vertical-align:top;">is_https</td><td style="vertical-align:top;">:</td><td><div>False</div></td></tr><tr><td style="font-weight:bold;vertical-align:top;">is_local</td><td style="vertical-align:top;">:</td><td><div>True</div></td></tr><tr><td style="font-weight:bold;vertical-align:top;">is_restful</td><td style="vertical-align:top;">:</td><td><div>False</div></td></tr><tr><td style="font-weight:bold;vertical-align:top;">now</td><td style="vertical-align:top;">:</td><td><div>datetime.datetime(2014, 4, 11, 23, 46, 45, 546403)</div></td></tr><tr><td style="font-weight:bold;vertical-align:top;">raw_args</td><td style="vertical-align:top;">:</td><td><div></div></td></tr><tr><td style="font-weight:bold;vertical-align:top;">raw_extension</td><td style="vertical-align:top;">:</td><td><div>None</div></td></tr><tr><td style="font-weight:bold;vertical-align:top;">url</td><td style="vertical-align:top;">:</td><td><div>/imagine/logo/index</div></td></tr><tr><td style="font-weight:bold;vertical-align:top;">utcnow</td><td style="vertical-align:top;">:</td><td><div>datetime.datetime(2014, 4, 11, 18, 16, 45, 546437)</div></td></tr><tr><td style="font-weight:bold;vertical-align:top;">uuid</td><td style="vertical-align:top;">:</td><td><div>imagine/127.0.0.1.2014-04-11.23-46-45.b6dcbdab-9eb8-46c8-9ae5-7469146f7079</div></td></tr><tr><td style="font-weight:bold;vertical-align:top;">wsgi</td><td style="vertical-align:top;">:</td><td><div>&lt;gluon.main.LazyWSGI object at 0x7f3398087290&gt;</div></td></tr></table></div>'
tRp69
sS'frames'
p70
(lp71
(dp72
S'file'
p73
S'/home/chandan/web2py/gluon/restricted.py'
p74
sS'dump'
p75
(dp76
S'code'
p77
S'\'@auth.requires_login()\\ndef index():\\n  #  editima...rn "True"\\nresponse._vars=response._caller(index)\\n\''
p78
sS'layer'
p79
S"'/home/chandan/web2py/applications/imagine/controllers/logo.py'"
p80
sS'global compile2'
p81
S'<function compile2>'
p82
sS'ccode'
p83
S'undefined'
p84
ssS'lnum'
p85
I216
sS'lines'
p86
(dp87
I211
S"    environment['__name__'] = '__restricted__'"
p88
sI212
S'    try:'
p89
sI213
S'        if isinstance(code, types.CodeType):'
p90
sI214
S'            ccode = code'
p91
sI215
S'        else:'
p92
sI216
S'            ccode = compile2(code, layer)'
p93
sI217
S'        exec ccode in environment'
p94
sI218
S'    except HTTP:'
p95
sI219
S'        raise'
p96
sI220
S'    except RestrictedError:'
p97
ssS'call'
p98
S'(code=\'@auth.requires_login()\\ndef index():\\n  #  editima...rn "True"\\nresponse._vars=response._caller(index)\\n\', environment={\'A\': <class \'gluon.html.A\'>, \'ANY_OF\': <class \'gluon.validators.ANY_OF\'>, \'Auth\': <class \'gluon.tools.Auth\'>, \'B\': <class \'gluon.html.B\'>, \'BEAUTIFY\': <class \'gluon.html.BEAUTIFY\'>, \'BODY\': <class \'gluon.html.BODY\'>, \'BR\': <class \'gluon.html.BR\'>, \'BUTTON\': <class \'gluon.html.BUTTON\'>, \'CAT\': <class \'gluon.html.CAT\'>, \'CENTER\': <class \'gluon.html.CENTER\'>, ...}, layer=\'/home/chandan/web2py/applications/imagine/controllers/logo.py\')'
p99
sS'func'
p100
S'restricted'
p101
sa(dp102
g73
S'/home/chandan/web2py/gluon/restricted.py'
p103
sg75
(dp104
S'builtincompile'
p105
S'<built-in function compile>'
p106
sS'code'
p107
S'\'@auth.requires_login()\\ndef index():\\n  #  editima...rn "True"\\nresponse._vars=response._caller(index)\\n\''
p108
sS'code.rstrip'
p109
S'<built-in method rstrip of str object>'
p110
sS').replace'
p111
g84
sS'layer'
p112
S"'/home/chandan/web2py/applications/imagine/controllers/logo.py'"
p113
ssg85
I199
sg86
(dp114
I194
S''
sI195
S'def compile2(code, layer):'
p115
sI196
S'    """'
p116
sI197
S"    The +'\\n' is necessary else compile fails when code ends in a comment."
p117
sI198
S'    """'
p118
sI199
S"    return compile(code.rstrip().replace('\\r\\n', '\\n') + '\\n', layer, 'exec')"
p119
sI200
S''
sI201
S''
sI202
S"def restricted(code, environment=None, layer='Unknown'):"
p120
sI203
S'    """'
p121
ssg98
S'(code=\'@auth.requires_login()\\ndef index():\\n  #  editima...rn "True"\\nresponse._vars=response._caller(index)\\n\', layer=\'/home/chandan/web2py/applications/imagine/controllers/logo.py\')'
p122
sg100
S'compile2'
p123
sasS'pyver'
p124
S'Python 2.7.5+: /usr/bin/python (prefix: /usr)'
p125
sS'session'
p126
g68
(S's\x11\xfb\x01\x00<div><table><tr><td style="font-weight:bold;vertical-align:top;">auth</td><td style="vertical-align:top;">:</td><td><div><table><tr><td style="font-weight:bold;vertical-align:top;">expiration</td><td style="vertical-align:top;">:</td><td><div>3600</div></td></tr><tr><td style="font-weight:bold;vertical-align:top;">hmac_key</td><td style="vertical-align:top;">:</td><td><div>360086be-e1df-407d-b4c3-7412e35f0596</div></td></tr><tr><td style="font-weight:bold;vertical-align:top;">last_visit</td><td style="vertical-align:top;">:</td><td><div>datetime.datetime(2014, 4, 11, 23, 44, 2, 85338)</div></td></tr><tr><td style="font-weight:bold;vertical-align:top;">remember</td><td style="vertical-align:top;">:</td><td><div>False</div></td></tr><tr><td style="font-weight:bold;vertical-align:top;">user</td><td style="vertical-align:top;">:</td><td><div><table><tr><td style="font-weight:bold;vertical-align:top;">dob</td><td style="vertical-align:top;">:</td><td><div>datetime.date(1995, 3, 5)</div></td></tr><tr><td style="font-weight:bold;vertical-align:top;">email</td><td style="vertical-align:top;">:</td><td><div>ckrocks5@gmail.com</div></td></tr><tr><td style="font-weight:bold;vertical-align:top;">first_name</td><td style="vertical-align:top;">:</td><td><div>chandan</div></td></tr><tr><td style="font-weight:bold;vertical-align:top;">gender</td><td style="vertical-align:top;">:</td><td><div>male</div></td></tr><tr><td style="font-weight:bold;vertical-align:top;">id</td><td style="vertical-align:top;">:</td><td><div>2L</div></td></tr><tr><td style="font-weight:bold;vertical-align:top;">last_name</td><td style="vertical-align:top;">:</td><td><div>kharbanda</div></td></tr><tr><td style="font-weight:bold;vertical-align:top;">profile_picture</td><td style="vertical-align:top;">:</td><td><div></div></td></tr><tr><td style="font-weight:bold;vertical-align:top;">registration_id</td><td style="vertical-align:top;">:</td><td><div></div></td></tr><tr><td style="font-weight:bold;vertical-align:top;">registration_key</td><td style="vertical-align:top;">:</td><td><div></div></td></tr><tr><td style="font-weight:bold;vertical-align:top;">reset_password_key</td><td style="vertical-align:top;">:</td><td><div></div></td></tr><tr><td style="font-weight:bold;vertical-align:top;">username</td><td style="vertical-align:top;">:</td><td><div>ckrocks5</div></td></tr></table></div></td></tr><tr><td style="font-weight:bold;vertical-align:top;">user_groups</td><td style="vertical-align:top;">:</td><td><div><table><tr><td style="font-weight:bold;vertical-align:top;">10</td><td style="vertical-align:top;">:</td><td><div>user_2</div></td></tr></table></div></td></tr></table></div></td></tr><tr><td style="font-weight:bold;vertical-align:top;">editstring</td><td style="vertical-align:top;">:</td><td><div>data:image/png;base64,iVBORw0KGgoAAAANSUhEUgAABQAAAAF8CAYAAACQSxZeAAAgAElEQVR4nOydd7SfZZm1L4qhiKKAYAfp1gEdEB1FVARGB1AElSZKEbCggAgqvWjoIEgLHQxFQu+9JCSBBAgJKaSTdpKcJOecnJKcEr4/9n7W80sEx5nPcXTc11pnnbc+79N+/+y17/uGEEIIIYQQQgghhBBCCCGEEEIIIYQQQgghhBBCCCGEEEIIIYQQQgghhBBCCCGEEEIIIYQQQgghhBBCCCGEEEIIIYQQQgghhBBCCCGEEEIIIYQQQgghhBBCCCGEEEIIIYQQQgghhBBCCCGEEEIIIYQQQgghhBBCCCGEEEIIIYQQQgghhBBCCCGEEEIIIYQQQgghhBBCCCGEEEIIIYQQQgghhBBCCCGEEEIIIYQQQgghhBBCCCGEEEIIIYQQQgghhBBCCCGEEEIIIYQQQgghhBBCCCGEEEIIIYQQQgghhBBCCCGEEEIIIYQQQgghhBBCCCGEEEIIIYQQQgghhBBCCCGEEEIIIYQQQgghhBBCCCGEEEIIIYQQQgghhBBCCCGEEEIIIYQQQgghhBBCCCGEEEIIIYQQQgghhBBCCCGEEEIIIYQQQgghhBBCCCGEEEIIIYQQQgghhBBCCCGEEEIIIYQQQgghhBBCCCGEEEIIIYQQQgghhBBCCCGEEEIIIYQQQgghhBBCCCGEEEIIIYQQQgghhBBCCCGEEEIIIYQQQgghhBBCCCGEEEIIIYQQQgghhBBCCCGEEEIIIYQQQgghhBBCCCGEEEIIIYQQQgghhBBCCCGEEEIIIYQQQgghhBBCCCGEEEIIIYQQQgghhBBCCCGEEEIIIYQQQgghhBBCCCGEEEIIIYQQQgghhBBCCCGEEEIIIYQQQgghhBBCCCGEEEIIIYQQQgghhBBCCCGEEEIIIYQQQgghhBBCCCGEEEIIIYQQQgghhBBCCCGEEEIIIYQQQgghhBBCCCGEEP73OABYu+F8TeA54OMN17YA5gKfbri2ja9t2XDto8DzbqPwduDAv2J/QwghhBBCCCGEEEIIwLuB1RvOVwFeBk5puLYb0Aq8CLzfz9wFPAXMAT4DbAK8BpwLNAGf81+Tr00HNvWzc4DHgHuBfsB7gRf8jd0avnsSMBpYteFaP/c5hBBCCCGEEEIIIYSwAlsiR15hTSTGTQI+7GtnA08isW8gsC0S8T4NHAPMAB5AAuAqwE5AM3L5HeI2vgy0+O8rvnawn2kG/p0qIt7vNn/hvs33/xvdhyeQgFj6P9H9aXQPfrKh/yGEEEIIIYQQQggh/FOwNrB9w/kqwDigDfgJsBJwGRLaDkbC26XAFGBd5AocCHQDP21o54++tq/P34ucfy3AQb62C7DQf1/1tYOQw+815CLEbXQDgxra/4mv3QKsAbwTmOy+zUci4/XAFR7DTzym8SzvFNweeMefnaEQQgghhBBCCCGEEP6BWGuF8xuBduBC4G3Ar4CHgM2BwcArKCz3bX7+q0AP8AgSzlYHhgF3I+fe7sDhwKvADsA0oD8wFrn3NkVOwoF+fjvkGmxyXyb520cjIfI3/v4XgTHAj1D4bxNwp7+9pvvysPv2Nff1bcBUFB78rNt9EDje9y7w2AeuMCdvI4QQQgghhBBCCCGEf0B2AJYA5yDBbDtgNvAh4EokqrUCH/DzH0KuuYXAoagAx1gfX4jEtYeQcLcSCgOej1x+G7qNDwMdKF9gySH4A+TeuxU5DldBTr5u4DA/szrwkt/9iK9t6P41I9FwJX/7IeRIvMhtj0POxh+474uBjd3G+92/OcDVvj4T+KzHdw6w1HMVQgghhBBCCCGEEMLfNUNQ2O7K/huJQmOvQu67GcDefvYtyLU3G7n5PgQ8g1x7H0ZOuybgDw3t34hEu1OQiPclJM4NRQ7BTVAV33ORy+5ZFIo7Cwl4jyIX3+0+/jQS437iZ28CzgJGuD8PA8P9jS95TCe5Dyv2qwlVH/4I8HPPxUYon+BslCOwn5//judilufmByiv4Cr+xvf9fgghhBBCCCGEEEII/2u8G1i/4Xw3JOgNAUYBvwOeRq45UPjrAlRVdwfgZGq13ROQ824CEgZBItpMYB5wILAXytP3CVSp93mqMLcKctItQSIe/u5dKER3d19bHwmR8xr6vqufuaehrwPd1nlUoXEeEvgedx+mIyHvAN8rBUPwGMZ5TCd6jHcj4fLfPAcLkaux8LTn7CUkRr4KfL3h/nqkynAIIYQQQgghhBBC+BsyAoXrngFsgPLelVx430Gi2otI8NoIhepujByAc4AuauXf7ZEw9zQSx37gZz4IfAwJg0uREAewGbDIf7ujnHxPoNDceX7/Jyhk+Me+dgASJi/w32jge/7uT1BI78+Qg3Eeyt33lNvezd9qQ3n9cF+WuG//gsKY56Bw5REey1xqaO+nPObZnoONG+bks8gt2UN1SH4V5UNcHzjN3x654iKEEEIIIYQQQgghhPDXYH2Us6+45rZGjrfNgUtQYYuZSAgEufGuBL6LRLi5SHQDWA0V17gVOfjORW66f/f9I4A+4A6UI+/9vn+T2zkchdMejnIKTkHOwBuQg28zam7BzdzmXkhcu69hTPf42rd8vhnK1dfkca2Eqvq+5jF8puHbh7kvN3se3o8Kedzuvv/M7+/s+2ci9+NtKKfhav7meW5nGhIor/Tc4bl8zXN7mfv3GhISAd6FKg43ujBDCCGEEEIIIYQQQvhvcSwwHolYA1BuvJ/63mpIoLsFCXrX+7kiBu6DXG9NvncJEspADr8ZSKzb220NQY63K5GoOJkaWvsZoNN92QCF1j7g749G+fdO8v07kGNuD+TM+xlyF16N8u696DE0+ZkRKD/geBSq+xFUSGQ6chb2Q2LbePfhM+7Tz5EIOcPtnopCeFfzmFp974N+/jbgUs9FE8oDuJ/vvctzd63/3+p3i2B4BMp1eDlyJI732oQQQgghhBBCCCGE8F/iFiQsrQ2sikSwrVEeuouQy+0R4CtIWLvX760PTEK57y5HufJKxdu1fK0PiYgbICfdSODzSICbAzyJ3HMroRDcRSh/3ib+fzUKO56Din/cgXLuHejvzqS64q7w907w+ftR2O18qiD3q4Y+gUS415DId5DHPwgVJZkN/NbjeACF797lPg5u6PfjfvYF4IsoX+EP3a8rGr63ludmpufqEo9hMlVAvQsJlTsiIbIP+L3XYmuvTT/klvwFEg1DCCGEEEIIIYQQQnhTNkCutdtRoYonkDhXGAj8EuXPG4PCaE9ALrWdUPGK9yAXXxdyqW0GrI4KY3wfhb4uQmLXJ93ufsgRNxs56S7yt9dy+0v8vdVQYY4HgcVI8HoXKqgxBuX5uw3l/puNqhDPRAU2JqJw3N8iofJC5MA7BAmKP/G7LyNH4e+Q0HaLv/WQv72a7y9BjsO1UGGSi9z34nj8rse2NQrlbQHO99yNB9ZAwuY4z9UZwHtRXsFd/J1fe47HIJHzWBR6XBjheVqIxNBWUiwkhBBCCCGEEEIIITSwLQrp3R65136Jwm9BYuAsJGY9DxyP3HNr+f6JyAl4PxK95qOQX1B+vjnAb1BRjXHINQcSvsYDz7jts1H48Mfc9j1ALwrF7YcEu5eQs+4F5Ip7FFgH5czrcPtrI9HsWZYvqPFtVETkJeAd/nsR6EYFS8ozPdTw3bVRvr4OlKdwHY/1buRafMLt/dZ9PMl9vt/vftTzcTa1wMkEVFQE5Joc63u/8fx91vf29pzNRkLnw54LPD/zvBbPU8OIi+h3OXI1roSclQ96LUIIIYQQQgghhBDCPynnIjHtZVTsYhGwp+/tgCrRroIcadNRaOwlwBeQwPUhP/sblK9uEQpvHU8V4L6CnGlzgT8iR90ffO/TyB3XjBxun0MC1y7IhTjP7b4LiVoPIzHv98A7geuQmDcJuBGF2L4I7IsEtHuREPkF5L6b4b8LPL5ZfmY2sL/fvRLl6JuCxL7rkWj4e3/7UWBl5A6c5nm4Ezkg5yEx9fu+3u4x4v7d6r95npOdfO87nrMBKP/fDCQuAmzotnZwHzpRmPIuXptXqNWGv+E1mIzW9DG0xiGEEEIIIYQQQgjhn4SjUbjt6kjEmgVs6XuHUx1lw1A47ZG+tzESobZAzr82JKwdALzP9z6MhLqHUXjsfcB/oLDgryP321XIKXcfEsbuQmLcdiinXw9yu62ERLx5fv8RVBxjGLARygXYgQS7NZEYONHf3RMJY1cjAW448AEk8LX677u+NszPXIPy/X3DbUxErr81/Y0OP7OR37kOORpfdR/3dZ9P8hiGe0znI0fjv1IrD18DvBXYDQmXX0Mi5BKPc32vyTz38QAkUC52+1t6vjfx2vzMa/UsNfz4x763pddzZbTm+6A9EEIIIYQQQgghhBD+D7ISEo6GIZfYk0iAeqvv347y4a2C8tR1+bk7kevtDD+3IXLs7U8Vrl5ClXM3ooqBB/m5hUjE2gSJU58HfoRy4i1C7ry1kWPtIhTmO9b3Po6EuftRyO6VKE/eHajwxlgkxD2LcuPtiFx5M5EQ+U6UR68DCWEfQ+G5M33tBH/7YV+bilx5NyNB8gHkzBuMxMr1kUuvB4XXruo+LkJOvBc8hpfd7vYefysS5T7nOdjEc7LAfwd5zuYjsfXDSHjs8hzv73sbeg1O85rc6ba73MYq/n+nn1sTiZmPu4/DvSYrEUIIIYQQQgghhBD+T/BhqtjzaSSYgYSsoSh3XisSuhYjNx+oAMZpKOfcz5D4tgjlmLufmpPu40hQOhsJbAuQeLYaCkudCeyBCmgs9f/1kMg2C7nRJrmNu9zmJ9ynmX7+ElR0Ywt/fykS2tZE1XznoLDYo4HNPabRSAjc2+N8Eol7l6Mw4Wkoj99QlP9vKhLtJriNo9xmExI110ThwEvcxhZ+/hIkBM70/GzlMdzhMU0BjvH9nYF1/fxSJDp+E4XzfslzNtBzOBvlN5wH/IvbPMVzf7nb7vaY1/Ja/c7PvQet5X1IZB3ncZbqyK8An/HxSlQHaAghhBBCCCGEEEL4B2NTJGLNQWGndwFn+d5bkTNtfeSSux2JYC1IdGtHjj5Q3rnfIufducj9Ng04FbkJD/dze6M8gQ8j4aoFONj3TkQi1FXUCsD7+d6FSJQaj0S2+Sg8dlWUM7DHff8Ecr3djUJlJ3lsx6JKwyOQKFZy5/0chRsPBd6GBNAW/22HhLOhfuYYv3OG2xjpNo/1NyYhEfFu5Kb7OHLZ9aDKwW9xnxei4hzjkQh5kdvd12NuQS7GocDJvneQr8/3uKb5eTy3Qz3XU/y984D3e5y/93MfQWv2EBJPp7l/66Kw7EVUp2d/z+cAJDR2eawhhBBCCCGEEEII4R+MH1Lz1v0YCVDtwFOoEMfTyAG2CnKhfQIJZTchAanVz7Sj0FmQUHgUcqXdjQSpoUhAmw38m58biPLSNSExbRFy662GwoUfRMLay0g0XBtVHZ6DnIHDgcuQ8LYpyn3XjdxsH0Bi3iJUWOR2JNQ1IVFsDgrZnYNEuauQuLYIFec4wMfzPT+7+t1n/E5///+l227y89shh+RY9+UUJJxNdF+HU3PwvdtjmuYxNnnMo1Auvg8gsXCE741CzklQNeDZyN1X8iLeA2wN/JTqlPyw1+ZJJCBOQwVG3o4EyhlIRMXP3IrWvh3thR97bgcARxBCCCGEEEIIIYQQ/u7ZFQlfh6GwznuBvXxvaySmrY7Cb6dRxbaHUOjr2kA/JD5tjcJe70Gi2yKUk24hyl+3OnKkfRlVo52AwlrvROGo05EQtQFyA47y915Coan4vUVIQBvl/p2FRMmL3d5YlI9wOBKq+qMCJB0e2+pI3OpFzrp3I2FynsdxADDIbTe53Yt8PAkJfPv72Xke73uQoNeLBNA1UGGRDn/7TBRG/BwqJjKGWpl4Zfdxksc60WPcxWO+x9dnI2Fwvvv8Nqqr8k639yrwVc/xFI91YxQi/ILbHec210Si7Cyv4drIhfgwEgLneE3+3e28CnzKfdrTa7I58AMkhH6dEEIIIYQQQgghhPB3x1ko99w1SExahsSvw4BLqeG/70Ui0urIATYGCXCtSDSagBxk7/Jz70HOvdFIYJyPxKQxSJDaDgla70chq11u63Ikzl3g7/4a5a5rRk60RcBX3PZzSKiaiZxws5C7bm/kWJuPwmIPpLr+mpFA+ARyww1CbrknkGj3I+TUm+y2dkICXhvKx7eJ73UjN9waKLy3x21t6fOx/tbt/vZBqJrufGoo82Yr9H0GEulWQ/n9WjzmMv7jPSfneY4u8zNdyLn5frfzGeBDnvvXvB6Dfb6616YZhXJ/3Gv3isc42mu0qZ9dgNYeJFJehgS/P6K98hqqbnwHyukYQgghhBBCCCGEEP6X6YeEncJQVHgDJHY9jxxq1yCRqxkJVIOQ6AMKy12AxK81kXPtLuRca0Ni0jeBb/h4Fb/TgsJ856I8g7ciEe5qVBjjfUgw60Qi2wB/fwvkCmxCLrRZyAn3sNs+0u+0Ate6H6ej6r5TPY5fIuFxrNue7fbno1DhYcjx1oxckScjoa4VuQb38nEnCuPd1e/O9LunIDfgFe7fJCSMboxCjbvdl52RY2+i57jFbR7lsTzssc30WEto8Obu2wD3v8tz9QHkULzG83ST25vruW5BVYBX8VrsAexOFfwmeu0meS3X8Hc20lJzK1r7gR5vNxL8vof2ztf83PY+L6yG9loIIYQQQgghhBBC+BtTQkWfR2JVF6pCuzIqrHGcn/sIcndtiATBBUjYakLi0eN+ZgefrwSsgxx6J6EQ4V4kZh2DRKZSaOM45N77HVVU6o9CSOchF90OSHBbhISlCdTiGAOQWLcQhfkuROHHn0Ti1WIU0ns7Cp3dw9/rRYLWmsANSCh7DTn5nkbutxko796rqHruU/72eB/f73uliu/LKPz1R26rE7jR37jF3xyJxNAX3ae73ccF7vNWPi5jaUKhyXhNxnsOWjwnX0Zi3zy3+xu0pgs8p8Mb1vEMz/0x7msvEhlPcXvreO1e8ZxvCTzm89kN8/w95CqcRs3teJz7txLKBdlFzWu4lJp3MIQQQgghhBBCCCH8DRmMcst9BoX4NiEXWAtyvA1ADrGzgfP9zieQ8LMScrQtQq6wycASJCb+EOWzG+B3vo1Et68h0a0XCWY3IhHr40h8moFCgM9DotFclC9vqP+vgvISznAfSwGQ9wH/4bbGIHFyIXLurY1Etw4kAF6MxLIjUcXcJUjgei+1UMgst9cfhQ8vRnkJf0+tAnwJcu+1+v7ZyAk4022chNx6Y/yNx5Czb67bedF9GomqKJ/oPs/0O22oAMm7qYVAFnns93ku+jfMzVzP2YWew1me04+5jzd6rnqQ8Pg15Fbcx2t0OdoDh3utlqC8gbf7u5ugNZ+KcgXidSrjvtzjWeT35vravyE36RBCCCGEEEIIIYQQwv84n0fCzzqouutiYC3f+y0SzEDFHRYgZ9j9SDSai8J+nwSuB96K3HRP+51NkePuIOSo6/X5bX73QOQsHIoKa2yJQnBfRQLVHOSe2xIJZDchR9xgJCxNR7n5JiNR7yD38Rlq7rvDkBtujvu1EIl9T7m/A6khsZcgse1yVASjw/39AhLqupAj8avAIb6/2McH+7gTONTPzPc7R7uNZiQe3uNvzPI3m/zeTcgZ+KT7uMh9nuM5+IGfa0Hi2QJ/9+0oRPcJJMZ1+P6nPL5L/P6T/tZiz/FYXz/Aa7CSj+d7Xed7zW70d5q9pnj+vuk5vM7fvsV97QUeQHtlPqquDBI0i8tzLc/Fqkjs/CrwOUIIIYQQQgghhBDCX52hqOprCxLBFiP32P6oiMeOfu4IqntvMyT0bI6KVbQj91pxxj2OBKObUa49ULGO61AhimuR0DYRCX0LgJ8gkW008BbgO0ggG+B+9QBXIdfdDFRM5DB/b6zb6EQi4GeR8HSFv9GDwk0/4/YfR86/xchJ9xEkTHUhl91AJJDdh5yMiz22w4Cf+zttnqNDfL8Igfv7XicKqz204f6dyK34KvAHqmB4Jsp1ONXXRrmPo93nOzyGSR5TM3LRHeT3m1EYcBtyWr4LhRuf7jkrYu0Az/u+nuOXkTj5I89fKxJTZ3iNPuj/v/Yano7cmgch92Kb5+Ul/98fia2z0R7B3zzCxzv6m/t6zG1IkCyFYp4jhBBCCCGEEEIIIfzVmYhEG1AhjEdQ7rZbgT4kMJV8bwNR+O+ZyFUGCuUc7uMtkJB0BHKz9SFBqzj2jvAzs1BOvrXc7ilIHOxBDr17kCi0Dypi0YRChs9AobTF4bYY+BYKFy4FNl7xdx9AwtYcJGBdg5xp0z2+F5CT8UYUJrvI3/sltbjH40iYehqFvS72vTORM7ITiYbHIrGvk1oEpDFU+Ha3MQF4FAlfHcCvUEXihe7DjUh0fNFtTnOfr3O/5iCB736PcSxyEs7zfH7LbQ/xt7vd1295Dj/oMbYiQXSh5/wG93m212Rrr9HmSJjtQK7Kxe7PzV7LhchBCAod3tnHF/u7u7rtOSiEucP9vs3jeZhauXgLFCYcQgghhBBCCCGEEP4/2QsVtfgsquTajnLHgdxih/p4ZxQy2g/YBglb5yOBaikSc4YiN9utqEDEBSj/G0jYuRKF5l6OXG13IoGqCwlQTyBBbG0U4nsZcggO9/MTkYg1GrkDxyMBbCMkVj2KHG29SBT7oa8f7L52I9HqASTwHUoVtLqQ2DkNCVq/RsJYF3IDnuG+zkFC21TgWSRetftvACo80uW/i3yt3d+43e9Mcxtz3J8zkEBYHIfHI8F0GhLFuvz+T5DrcCFyDrZ5TBcgF94cJHLe6zmY4zmZ4zk6DImOxVnZ7Tkdhdx27/ecX+I1eNhrcida78Vep1Ee19pIZC2i3Vkov+AX0B541ePtQHvkfq9DJwoD7uf2i1B4CBJmQXuww/3eDq3ltwghhBBCCCGEEEII/2WeQm6u4UjwKlVob0FOspOB7ZGYdYrf+RoSbkBVf+cB66GQzk4UJjoYWIZCTR9G4tEvkZjThApPvNPvbo8KS3QiEbEDOdFuQiLkZOBtSGgajEJLS7jwfP895HYmorDgs5Ho1OmxtSGBaT8flzDVLj97gNubgMKfFyOHY8mB14Oq8d6GxMNX3Pdmz98tVMffQBTS2+mx3OJ5bnZbryAR7za32ePr36WGAre4L63uw9nuazsKm23z8yXX4HB/b6mfPc1zsT0SPMu3W1Ho8H7u94nI5TfZcz3Q/elALr5OJL5t7/dL0ZA5SMQ7zt9/yNeWIcfhtX53Z7Q35iIxD+Sk/JqPT0aViD/vvsxHAuzzaC+2emyD3d8QQgghhBBCCCGE8F/kJVRIA+QiGwj8K/A9JCZdhwSdblT1dRQSkJ5CgtrFSOBaGQlzd7ut7yD32YbAuUjM+gMKJe1FDrhxSOjZHTkJT0RFIEYBv0BOtU7kJOtyH65E4tJYVCDjj0ggusrPdCIxaiEKqf0aEpHu97Ve5E67FrkFT0PiV5/HdAcSq65BQmUvctQdg4S/UsG2uAAfR2JZB/AgEq+KA/AWX+tAwt3jfucVf7NUC/4FCnPubfj2XPflKfdtCnIKznbfb6WGSN/nMe6KRNaFDd/tcnvDkOC4pr9/HXLxdfuZVz13R7s/L6O8gMcjAXE3tzHO7/e6Lzf53fOQwPcICmMGuQX3R8VEBiJX5yFIPJ6EQps73Ych1PDrg4Ft/c4hbmsrtC9CCCGEEEIIIYQQwn/CdsDPkKNrc+TeervvXYBEN4AvIdcVqLLrYmB9lA+uyc9eiQSsZiQOtiNBrwh+pwEbI6FnZ2A1VFBiG+DLbvNi5Prr8fl0P/Njf/8c4B0oHPY45ERcgsS7Dn//TJTD7xq3PR8JZzOowt7dfuebwAhq3r357us+SMia53EsRCHGRyCxrgeJfo8isa2xyMlwqvC3FIX6DvJxEQKHU3MGvuA2HkViWg8S+H7qby7ws3Pdp318fb6/2YZcmnt4TPdQhcKZVLfhtsDVSOTtj8TLDiTCdnnuS27BdyLn4GDP/Wu+3ub+DfPzi5HTc1t/azWv7YvAh4BT3edzUVjxYn+r2WO+GoUJNyHheX1/462Ip9DeA+3FC3z8Nvd9U7R3j0B7OYQQQgghhBBCCCGswHVIPHoKiU7LkNg1BglPDyER53bkQPsUcvM95fc3R8IawHv8bj9gEyTG7YUEuQ7keGvyN171N6aiXHb3o1yAayDxaC9UvKMFOAFVlW1HolUnEgYvplYI/iYSsg5E+ezmUXPijUSOwIV+7kEkQE1BYtZMJCzN8RgfQ+JZEQ5bkVvxJfd9MnLctXgcpSjIBCT8FZHsIST2dSGR8mZf6/EzN1HDejtQiG4LcjFO8rdeRs63FpRzsdl9e8xrMgcJaDOpwmGzx7iHx3wVEjm7/d15nqMDPWcl7+MC5Mqb5jluoToVT/D5J4A9PReroxyB93sNprrd8e57E3L3dSAx8dtuY1O0RxYA70VMpxYMeRLtsa29HneicPOybqP97jJ/82kkot5ICCGEEEIIIYQQQvgTbgT29fHnUJGGdwIfRWLNT1Eo7hQkpI1EolAvEv6m+O9CJNYMRgU/zkLuLlA46G98fBfK7/dx5Gg7nxrqWQS5LpQncDoKZ/0eEny2RSGgY4Fv+PmXkYhWxKBx7tchSEQ7CwmFHdRQ1TbkyJtHDX3tRGJYcS5egQTK6Q3vNbuvryFxqwh/c9xeExLnRiBRrOQufJYaNt3pMY3ws3P97myqENiEBL0bkQjZ6z5Md59KIZEl7nMncl9e5zEN8hhLaHUHEvbOROLlwR7DOJ8vQ+LjaM/pnv7OD5CDshn4Pgp9no6EuBKqO8VrNxCJqHORSHg4ciKC1v58H1/tNdke7ZU7/N5ktzXd/W5Hot4Ir+uJwJFoT34MWNfvf97t7o0E1RBCCCGEEEIIIYR/evqhkM3NUTGGJ4Av+t73gOt9/J0F600AACAASURBVG4kJhVmoJBOkJi1E/BBFMp6JhIKpyH31pNInOpColYPcmndicSon6JCD8OQa/AWFM77DiSm7YZEo1lIWJyHhLClSDQbhvK/jUdC3xwkYp6JhK3LkAC2iBqGeydy6z0NnIRCUZ91//rcXrPHVgp4zPM4liDxa7Tfa/P/ViRUTnMbc5BgVar3LkDCXhtVKFxArSY80mPsQ8LXI9SCI23+G+1vl37Mc99ucV+b3fc+tzvE75/kdXjVYy/hx4vc7qWeq3NRSPEcJPiNR6LqUCTELfHcz0Mi4myvza5+5x0obPiPaM8M9Zod4bUueQt7/e0l7stT7t90tB/OQnvpg2h/DkFs5G8W5vk7IMHzQB9/wW2uC2yGwob7EUIIIYQQQgghhPBPyP5IhHoViUevI+FoChJaJiEn1d3IeXUUyhHYitxWn0LurHegcN02lDNwPSRerQH8i99dCTgUiW47IcHncSTQtVPz2C1DjrfZfu9Sf+9UJAyNATZAQtdxvj7fzy1EjrluJDKN8LieRCHFcz2GGUjYKgU+Fvob46iOuYeQwNRDDTV+CYlaJW9dEdKed1+X+ttz/Pwk/+9F4tZ43+/2cXG4dbkvnX53KRLHprrtIlw2+5lnPf5O963HfX3Qfb/dY2n1+pZCIaM9t0d5Lq5Aom8zysnX6741eU4u99yehoS9l1FevtEojPcUf+NS93+221/mNl/12l7utX4S2AVV7D0M7YkpqIjH6mjPvAtVHm71/7e7jU8hV+oi5P470vNzN3Icvkrdsy1oLy9AbsYFyLUYQgghhBBCCCGE8E/Hd6kuP5BL630oZ9/DqDjE3kgUexaF75bcfc8gt9tSqmBVKgGPRyLblUhYegy588ah8M0dkJCzIXLrPenvP4zyz5X73/d3XkSiVjcSfXp8PMnfvgeFxT6H8tMt9LuvICfdw0hEmojEsHaqyDUIiU33ud/NSEhaRnXtLUBOww7f73YfJlILjixCAloHEsMWUp14s6mVkluprr9uarhvESInUcOFS2GOmb5exj3f14c19LfkwZvtaxOoFYBvp4qj7f7WJB8/6jka6zlbiKr7Dvf83eM5ntgw7qk+vh2JooP97iLkID3cc47Xdj+01ouQO+94tBcO8fefQ6HMM7wGL1GrJXf7+9P9nZJL8Hy0Jwch12J/j2NTlEuwi8q1yNEaQgghhBBCCCGE8E/HT1GIJijX36KGeyOAT/v4GuAgH/8WiXgAZyB3GEjAOR05/oajcNJDkSNtAHAbcqw9gVxu7f4rhUam+/491Gq1VyA31yEoB9zvUWjqNODDSGg7B4W1voZCT7uQG6yECBexbai/dxcSmcYgMXMxCr8tQmY3EtfG+71XkODW6meLMNjs54q41+txLPU8lrEtRu680p+FVHFwqe+Vdkvl4tJGH1UkbPc3FzS02+K+veK+jnMbRWxc6nlb7LGORsJgCb8ubsaWhv5M8LVBXpO7PMdTUL69aV6D3yFh9mC/fzkS+0rl4U4/W/rb4THM8XOd/sYAtEcOpVYH3grtqwGIU9BeA4mHZ/r4ILQ3QfkJX6CyAIUAg8TCIwkhhBBCCCGEEEL4J2EByjU3GYWBzkKi3FAkct2KhLelqCDDb5CocyESfsYioW83JKIdgcIzXwP+HeVca0VhwTsjlxrARUjI6edvfgRVnC25/0ahXHWnIsHrF8jt9TAKg21BzrBeJGi9jkSuJv9/FglXD3hsw5HQNRtVvm1DOegWIqGsCHjdSKAqeQUne45K8Y0lVMGuBwlXnX6+m1oEpc/9KuG63VRRbbHfLUJYh497fK+Ig8XtVvIG9lGLYPT4m+X7PVRBcYn7Otfnk93O/BX63eyxL/RctHluZiOhbzgS+h5wH55123N8/rr72+v1WoSE4of97WPd1qley9HIjfcsqvr7Ea99P+BkVJAFtAd2RuG+bWgP7eRnP4WqCo8B/gMJg2PRXjzf4z7dx0uREHkL2i9Dkft0ltdzMnIZLiCEEEIIIYQQQgjh/zA9KBxzY5Q77WwUtnksEtj2QjniOnzteCRMXYiEwW4krN2LhKBnkTjTjQSWVqoj7nVqnro+5AibisSZR5DY8wxy+81HglCprns/Enp+5TaPcv+uRsLkK6joQ7PvzUGhnmNQrroRSOgqfStVectfcSCW0Ng25HjrQoLRUt8rOfuWUUN8iwjZ4+d6fb+Mu8d/r/u8CHyljfJ8X8P7r1NDfMs7yxqOi1jY2IfyzW6q+3CmxzDd81ZCndv9fuMczPW7Y/zMCM/dK6ioxmzP7QLkthvjub8KCYA/87z92mt1PwopX+C1nO+1fcbPlcImU/1XXJOdHn8RQdvQXip9G+Zn70d7rxvtxYt8fCLaq+3A0UhsfAn4JSoAciZwM9rzH/S8hRBCCCGEEEIIIfyfZCUktBT+gPKzgXK4Xe3jzyA3GMAWKP8bwEdReC3AV5CwAwqvvMzHd6LiImsh4W9jlNfvUZRbcDxyDZ7odr9NdRjegRxqFyBR6AYkQo1EbrIFPu72c6X4RQ9yqr2OxJ0lVFGsmyroTfW9SVSRrMvfKA654r5b0tBOEduWsbzw1vi/CHyvNxwva7jWePz6Cs8ve5Pn+97gW8UVuKzhmR73e4n7XoqUNI5tesPYlyCn31LPTeNcLXGbr1OFx3n+ZiliMtJrMRqF3c72WnWi0OBxaB+c7/a/g/bNSSjsfDyqPP0ocvdt6u+/De3HuxCXIEEPJCR+xcfjUTgyaA9t4eNhwGd9fBW1KvA+SAAs9AKrEkIIIYQQQgghhPB/hP9AYkh/JMgs8XF/5LK61cdPA0N8XIpq9Eei3AQf34ccWf2R8688PwXlczvP7Z+PHIITfX82ys93C3KF9UeOvUHI1fUaEo46UN63SShP3KMoZPMG5O66FrnY/ohEqSeQq/BF93cScqbNRuJUMxKLWtzHxUiQ6qAW0mhBQlk7VUQrIbw9VMdecc2tKOT9rf8ahb8iSBbnXHEklgIa7UiUa2kYc7vnYDHVjTkeCXpjPHejPJdjkcA3DeUQnOe5X+y1aEduzRleqyfRnrqCKgZO8xoPQmve3/24xW3N9rWJaM+UPXoeyhs51feHoD3X3/2838cT0B7tTy1a0h8VDHnGx7eg9S/7vuzR/ui3sSshhBBCCCGEEEII/8Cci4SyY1FutnYfH4uEt4t9PAwJKceiUM3HfPyo/8ozd/t4KhJ6TkCCygnIUTjB9ycicehC5O46zvduQ07D2Si8eJH7MByJkH9AYavnuq8XInHqBiQmPYSEnuFInHoFCYCTfTwDiVezkLNwDhICm5BwNZ+a16+bGsrbRQ3dLfn6/n8Fv9Lu6x5nKQZS8vkt8r2uhm/+d0XBFUOMG8e0mOryW+JvL/acNHuOZnrOJnkOx3hOX6QKgcM8xw8iR2EJ973Qa3Wu2/yD1/I5r+0ir/Vsr/0f0V44zn36HdorE9HeGe82GvfWFWj9j0UOwWH86f5sPL4d7ZFj3YcZ1H2/GOUSPBblO7yCEEIIIYQQQgghhH9gjkOVe0H5z6Y33HsVhWKCRJXdfHwjCuMFCSl7+ngEsC2wJhJR1kQOw8d8/1bgMFTsYRGwpa9dAhyAxKZvIYHnct8bQxWQLvP/+/zsKCQozUL56trcbnG5FcGs5Mnr9PVS+bcZCV/lf0vDu0v8Xgmv/a+IbyXstgc5yPZyOzt5Hq6lhkrjtj/g4wdRcQp8rTEf3QS/Cwp37XbbV1HzA5bw3P+KMFjCmJdQi5S0us3GOSpz19nwXG9DW+XaIj83j1pgY5TbuAe5DctaXojcmH8ELvUY9/Kz30WVnW9Fe2UR2js/8PMgwffrwBpo/ddEe/BF398T7VFQ+PBAH/+H+wIKMZ7UMM/T0W8Blv99hBBCCCGEEEIIIfzDsTKqvHshysX378i591lgRySoHITEuWko7PJY5Aa7EQl3rdQQzl7kJnwViTuTkRDY6fOSN64TiUCl0EMJy51ELQhxnZ+7Egkyg1CI51NIEBqNxKFpSCycA9yE3GuPIvHpZZ/PReJeydtX3He9VLGv299rDOltFMr+nJA2FuWvm4vCRkECaWfDXC+k5qsrYc+FXmBrHzcKgFu5H4VZwFk+PhIJYoUOlKextD8PVdId95/0fcW8g2X8pZJwEQWLa/D1hnlsQeLefLQe81Ao8Hy0FnOQe24q2isvI+HuKbSWtyHn3VX+xg1o7QejvVDCjXvdRof7tZRacbiTWhRkMdp7j/mdQShsuBXtlRs8h8cC5yCH6/4oF2Ab2vPbua2vod/EqSgceCVCCCGEEEIIIYQQ/oFYQBV8Ov03GYksnUiceQSJQ3+kinGXI3GpA4VI/hQJQXujEM5xwJeRaHcFElBmIUfWd5AwBxKCPg8cikSa9yEx63MolPQ85Dh8zveLqLcEiW29VEGxzeeTkDA0EglBJcdfCV3toBYEKRV0G6vslr+/xN3X5LGt52tv97gGIwEMVEm50b03hVoI5WcsL971UItTNAqAn/G9wiIk/IEEtakN95YBH/Lx4ygnHqjYyjL3dVMkyv1nLsEyN0UQLIU/lrF84Y+SL3AmWqOX0dyP9HOT/X6b2233+Ti3+YjfG0QNHz8Xufc+5/G+FwmFh/naaI/rEWBftLdmofUYgMTEHZGL9ARU4GOJ5+1UtI/7U/MQXo/2+DK0x4ZSi6JMRvumhGkvQ7+dEEIIIYQQQgghhL97XuONQxw/h0QsgHWoItVbkIiyMvAO5KgCiS8jfHwkEgg3RCLez5FAuMDfeAWJUo8hQWUUtapsL9UR2IXCOpcA17gPFyKn3znI4TWA6gpcCDyPBKe5VJGqONRKTr95VKdfYz68/yy3Xrl/sMd5tr9TaHTeXYAcbYVlKGQVJHDd7+M93JdCl6/B8gLgHr7X+NxePr4PCaSg8NhGsXEGypuH+9boRGxC8whwiN8rzr4/F85c5qyEDDfO6Xyqw7KIq3N9/jxaw0Fo3w1Aa3gOWtML/O7Vfv5hj3Mamtvi0uxGe6YTCXWD0Z46zt8/EjksX0B7+xLgKI+zhKbjb62DHH1LgH6+vgBY18fPoN8C/GmIfOP6hhBCCCGEEEIIIfzdMgm5wWB5geOLKIR3XeTkmwnsAvwECW0nohxqC1D+tEnUMNA+JNTM8PFTSLB5BYk9nUiguRu5rvZFIs+6yMH1aSQQnovcXUNQkYbiMCtCYRcKDZ2JBMORSAAajgSjyQ3PFrdaGzW8t1HIejPhr4iEb/W8TKDmnNvc7xXh6JWGe7v6m4XFyLkGEsBe8vGn3JdCB8pPB8sLgPv4XqHX74JcciW33SHIXVdYivLigSrcjvVxP/d9i4Z7JRfhmiwf5vvnCokUZ2AJvy35B4tbcJL7/Rxam5HIAVmKrnQ1PFscmsPRmj+C9sAQtCdmoT0yzXN0PdpDR/v753h8L6PCIn1oDxbXYhPaoxP9XjMKTz4B7eMjgJ39zo5IHHzUx7D872NjtL9CCCGEEEIIIYQQ/u7ohwoqHICcUnOBm5GYN4Gaf6+Eai5Agkg7EqQeRkLKaSiP2nAkdt2KBJh3I4FnC+BLyEEFElK+7u+OQu61VuQCm4TElCYkBpVKtIOReHOFv/9Lv9Pf/XuAGs7b52fnIlFpkt8pgt8yt1kEp2UNf28kcs1HxSRW9fOlaMd5LO/666IKdld77ACru511fD6VGvZ7NhKz8P3XG9prBX7o40YB8IdUtyV+Zz0fz6Q6+S6jhgOXttfw+WRq4ZD9WN5RONdjAxUV6UNjXwPN7xvNU+McNrrzlqE5X4zWYKLvFSdgn9vsQGvYCpzp/7/0O1f42WeoFZh70R6ZjNZ3gN/ZCwmqBwC7U0Ovn0Hi3eZINHyPv3MrKmIzHO3h05AY+QhynLajPV8qL7d5DK/5239AwuFcFML9Xf8VITiEEEIIIYQQQgjhf5Udkah3HSpoMAOJR/sgAetaYDMULlrcbDsh4Q/gmygPG8Cvgd/4+CmUx+9bSNg5EYVbvopCMUs4bjsSqAYj0eVkP/8NJOrsgQSci5FrbCgSuJqRcNSCxKBn/f9B/5+IxKA+ny/1/1aq4FecaW8W4joLiUX7+NmVPbZRDeMv1XjXabhXKsjuzvKuv06qOPgUcqWBQogXNzzXKBQ2A7/ycaMA+EvfA4VeN4qGbagabvnOUz5eUeRrdAPejZxy+NsrVh8u91ZGc7EfcorO5M2LhzSGUfeitWpHQl47WptWqsD8oK+XtWzxM81oLZ5FYcMXoz3xDbTO30B75mS0h55Be6qdGnb8Itp7I9BebEe5Jw9umJ8zkPsPtNdLSPVDyAkIckYejH4Tv/f5vug3MxOFLV+PflPFKRhCCCGEEEIIIYTwv8pmSEQpvFmOs32Q06kf8COUr29PFGo6ElX+bfJfcdhN8L1ZqMjCJCSwHA086bbmIyHpHuRWG0QVakreuB6UJ68D5W9rBi5yu8OQe2wpEreWorDPRSg0uYXlxcbiSHuzMN8eFGb6FFX0wn0pIbtHsnz4bQsqdAISgoojcFV/YxOfT0ZFUAAuRS40UDhrY9hvHzWcdy4StmB5AfDkhu9szfIVgXtQkRBY3ml4JdWRuBHLhys3oXGDBMdGd2E7tUrxoSyfo/AlJGSezRuLqY2uwG6WF+XKGi1Ca9a4hiV0exbKWdiM5qzD10vBliVUYXkQ2h/3oDmfD6yG9trRaI0mob04CwnR46kOxTmehxvd5u1IBHwEhbr3870i4q6YI7O4W0G/qc0IIYQQQgghhBBC+DtgXWr10nWQ8HUicvw9gkSSu1G4YwcSXRYiseQ2JPDdh0SR0cgN9aGGNk9BIZXrIvFnbyRiPeu2i+jTh8KCm5HgMwI4FrmvrkECz0tUgagb5YJrRwLULOQiK5V7S5GPUqSivPNmYb4lzPhn7venqRVyQUU6XvFxP7dZhNIHqTn8VswDuNDjALiXWhilMTffmu7Dqj5fQi38MRU53sp3igB4MVVA/DpVlFvFbZUchYuRaIe/XYqNHOu+lfEsQwVD8Fge9PHnPNbGvIbl3rp+bzuf/4wanvtmQmA3WotSQGQ+EgBLXsY25KR72vMzxO+UcO2X0F64Grkwj/O4ikj4CDX8ewnaY4ORUPxttIfXQ/vyFPd7Htqz+6A9vB9aq5Foj8/xXC31+68hkXGY+/l9JGw/Q3VuNhYOCSGEEEIIIYQQQvibsx1yMt2IBL/XkQNqIRJgXkCi22NI7NkVOAu4ClVIPR443W01OqKaUGGQ05HT7EokhDQjAacTuMvfOAWJKP2RgPIAqgw8FzmvyvO9SARa5PYmIRFsip8pouQUJAKWsN5OH5cQ1PL/jcS/rd3/65HYU2hCQhNIEOwD3u7zcR4LSKzrbnivMQ/gUGoOuuOpYbtFKCz0AZ/w8SKqEFly28HyAuAVvgcqVtHi44+xvBuwUdhrRuIuSGwd5uN9WN7V143cnQB3IicnwFpu+9M+v5Ll8x/OQXMIsBVvLgIWUbYUCCnr3I3EvynuT4evTUGC8SR/cxHaE43rfDs1B98DwIFob92L9lobWq/SZjPa72VPnYpC2+c1zMlAH5/qeVsJzfs56DdxBxIXr0FiYZvb7PR4n6b+zopIGkIIIYQQQgghhPA34cdI5NsX2B6JR+/zvT8g8QOWD3Esx+sgYeRG5HqaA4xBwsnrKAfey0gQ+QESRT6JXIBnANugPIMHUx1exfnVhESTp5HQ8jByYDX5nWUotLIdCWGTkdhSQkE7kLDTw/L55/p446IeG/n/dR7jOn52F5+fzPIVdBciIRQUJtvm45X8vS/5/GVqHsD+7j8orHdFca6EB7cD+/t4tt8Dze1NPm4UAG/yPdC6FOFyP2p48of4U5FxWx83NYzlbuR8A1V77qXmO2yjhjf3p7oGQU6/4qL7stsvDrhrqXNc9kbjXwnBLmJgL1q7dqrLsxOt8TBq8ZBlSCRsQnvjYbRXyr5pojpBh3guDkb7ZxskTp+ORN+SK3EEWrNR7ts8NLdNHvv1aM+vg+b6OI/xjULkQb+lFvTb2hf91o4ghBBCCCGEEEII4W/IF6iFD0AOqE19fCXKcfdZVB11MBI2ZiJBphUJNc8hQa8JiR9fpubMuwbly/sKElNORmJQcejNQ2LWLL+7EIkzi5HLsAcJNz3AE0gQewAJNKWgRzcw3X/F9deGhMBSdOKN8vx1+NrH3NfD/P7qPn8GuftAIbk9KGy5zM1sH6/pdkquvvEoBx3IIVZEv214c0deB3I/ggS8UkClhLiCxKm7fdwoAN5FDSe+2u+AhNby7QPQmuFvrigGbuPjJmrF30EeC0gkW4acf6D1usrHe6G5eYvPx1Bz4K2O5vRwn3+EmmfvjRyBZZ2WUIu0rLi+S9Daj0J7YTbaG73UvXIlEgq3RXtqH/f5QbTnun3ejPbkPOT6OwTtWdz+zn63Ce3x4cjJ2uoxzEK/iUfR2myH3KtlbjalujNBOQh3IIQQQgghhBBCCOFvyGYot9wXgIOQmPIIcu2VYhnDUeXUwchVdh0Sl0Di0+4+7kBOs1ORAHi1r3UhAWUWckl1obDQJ1Bl4NuRgDKWKiy+5msP+P/jSPRZQi0EMsXPltDfErpcHH9FTHqjUN+SV28EEnoKC6mFMopYtbnPH6Xm/nuP75XiDpOQSApwJhI5oYptJW9eLzVf4CJqQY3p1Px+rwA3+/h5qoNwKDXnXqMA2Hh8N1UMHNjQ34v8DZCoW8KES14/kIC3DPiwz+ehgh54bJN9vImfK07RMShEHGo481Y+v4zlnYIvob0EWoMV16ZRCCxrWEJpS969VrRnSwGQLrRPH0N7t+yZ16hC3VhfuwPtuSfcx060J2eisOEuf+NqtIdPBzakVkzejSrCngbcgNyaZW8MpxY3Gen+zEbi7ufRnk1BkBBCCCGEEEIIIfyPsxcKkRxFdcENQaGaE5H77F+B86lFKxpDHC9GItI2fv6PyNm0DDmqJiHx41AknLwbuAA4BvghEkFuQuJOKxL1rkSCzbf9/1pqTrgeJHJNQY68mf7WayicsxT7aHT9vZn4d42fPdhj2dzPbu/zI91eKcIxDok7IMFoGbCBz6dShbrTkaAH8AE/V0Jgl1BDqWd5XkHzf7uPh1BFtEeR2AoSkJ718UMNx42i3xDfw++V/j69Qpvl3duoYb7nuk8gd2PJ/7eOx/ABny+kuhJvohYd2cDPfbLhO8U1uCqayyJybo/m+iM+PwitxbX85W7ApdR1X+b/49Cee4AqCHa73cY9dWVDW30ex2S0J49BxUPWR3vuUCSkTkJ7ehlyyt7qa9sgp98lHkvj7+MXbmtbFCo90X0Z4nY60No/jX6LIYQQQgghhBBCCH91foRCNLdCIZ2NVUpvpoa5noYKHmyB8vwNRmGhrVSHUwtyiR1MLRAxAIXT7oxcZL9D7r0uFN76AnKkDUHhkNOQU6wLiS8dqELt88ipNQqJPyWn21Qk/PS53fm+3xjq+0bOsrXdv0uRS6vktnuc6m7D4/udj3d1u42hrzf6+Hhq7r93+BtF3FqIQktBTrJSJORBqkPvhoY5u7KhD1dRw3gHIvcayAn4XEM7RQB8DhW4ALnQSp7AxvDhydSw1HHUHHUjqOLhXVRh8GSqoFlcjO/weRvK+VjGUATEtdBc7erzC9FcFiZTi6CsjNbuCp+vzZu7AcvalkrB7WidZ6C90Irce71orzzhOXkA7aVOtLcuQ3vti2j/X4z2YpPvL0br3oT27qErzNkhKFdiC9Uh24p+E48hd+EWnpsz/N7eVJF4HbQv3o4E02dQDs4QQgghhBBCCCGEvzqfQaGKhdHAx1FY613IlXYNctp1I8fTGCQA7oWEqFLZdo7f2wuFdp6KBMU2JP7NRO6qLmA9JHr8Agkok5CIMsP9uRE53kqF1lLV9UEkZrVT87+VvyVuo483Fv+WAd9EQs0t7nMRn0pF3ff43VLt9nj3twiE84HLfXwsNZfe6n7vyz6fjgQxkIBZ8iCeR83FdzRVFDuUWljkR1Qx8VjPIcgtOMPHjcU+GgXAxuIgM6gOw2ZUoAR/80c+XkzNyddCdejNoeb/ewkJaKDCFyV8uBT4KHkSO4Bf+/hyaujzymgOS9GQr/u99/j8CvejzPFN7uOe/On6NboBS5GXxj1QQtVf9byUcPAOFK77CBI8h3t+yp4eCfwc7cn13N9j/Mw8aiXfU5FQ+G3kZi1ruR/6LeyFBMAJbrdUML4G/Zbu8rg/Rl0/UBj7ZwkhhBBCCCGEEEL4H+CDSNw4GLm0SlGD+chRNdT3zgN+73caQxzvRKLPUUiYmYYEmJlILJmPHE6noBDIw5Fo8gwScYb6ewf6e8cgwabZ7d3jNocgd1kfcrbNogp+C5DQUqrHvpnrb2P3eVe3s7XPv4ccYyWcdxBykRXaWb7KbxH9VvV3S8GOkdQiKud4DKD8dt0+LrkEV6XmDlwdhde+7utbU3Px7U4Nxf0FVQy8CoWTwvICYKPTbwE1bHsJ8A0f96EiJatQQ3tX9/H73YdGB2M3NU/ifKow+CQSwwC+i+a+hEt3UgXH/ixfNXkONdx5AzT3B/l8K/dvN5+XisVv5AYsa93tsRZBcCbaI30+HoL20L2+Ns/9+4WvH4DEw6Fu7xn38YfIvXeK+9WMnLAzkaA4ze0dhX4TJR9g4+/jIiTCHozCrqd6Dlvc5wt9rxXlFwwhhBBCCCGEEEL4q7A9chxNQsJMLwovPQqJSUf6uSOpDrLDUbjsx1DeuBf914vyvF2KBJjNUdjj6chJtRSJJs1InJmMRKOfI8FlD98bicSU51B+vwEo7LeF6u57GuVvW4YEmjnUcNAVnX+NYtGeyMXWWIF1sNsqTKKKaGu5zR/6/HQk+KzsvyUNc3Q/NXR3byRGrYzyxy1DAhZu76s+XkINrV6C3GTlmeIgLIU1NqRW6d3P9xltJwAAIABJREFU/QCFrE71caMAOJVaQKQDFaUo7W3iNl/3tR38TZBzrQiNjfn/dkFzDFWM28Bj7KbmM5xALUryM79f5qsDzSHI6diDQl9B4lzjurzma4VJKJT3jdyAZb2XUouElH1R8kIOproEW9CeGoD22HN+ZyTag3ugeTwG7dHJyAlYhL+lKDz+VGo4/BIUTjzB8/QC+m3dB3wU/S6Kw/J8lv9tPYh+c3/wu+0e7zBqHsoQQgghhBBCCCGE/xZfRaLdFsgFNgL4tO8VcQMkUjyBKtmORYLPeCRyPIwKGzyNqgZ/ALnydqQWTOigij+zkBNwICqW8AJyHjYjce4mVFH4ZeSw6kXhmi1IaCwFQCYgd14fEmeWUgt/9PGnFX6/6bGs7/6X4hXv8PlJPi9FPb7g88uo4bkr+/sn+/x6anhrcfQV91YXVTichfL5gfLGDfLxGGoewFepeQTnIrdcaaeIhK+7/1+gCnanUcNPGwXAJmpV5h6/sy5V9Ps2tYrtb6hOxxuojsI7qeGpg6iFPAZQc/wdRhUJS6GTjzb04Xofn8TyIdSt1DkphUA+5fMT0Zq8s2GM3R47SKBbcX37qAVBigOwz+Oa4DnoRHuoBe3bXrTHXkZ77ma0B5vRnnwB7dGb0b6YRRWBOz1PI5FYOwPYCFVQHoJ+R3d7/ia4/2ORI/BxqgB4AnWdtnF7q6Df5HiqWBxCCCGEEEIIIYTw32IdJHSs5PObUQjml1DxgqlI9FiExJzjUShkEbBKiONbkdBxLRJY+lD45AQk5nwLhfBui4SQx/3Ms0hE+T5yYd2ExJsmJOCc3fD9hUhAGk0VAdv8fAe1KMSKYaKXIqGpi1qB94d+djOfH+v2isD0IDDbx6v63ZN9fg5ykZX566MWuJhOzSl4H7VQxyVUke631JDg85FLDST+FQfhUGphjJmoWjKeu52oQhtoTYoI2SgAzqPm2isOxK9QQ5DPo4p4jza8NwGJs7hvjbkDf9tw/VIfv4Lcj3jsxU1ZwqvLnC9G1YVBc9lFDROeiQQ5gHehtTjO55ugtSq5Ct/pd69C4uyKIcHFCdrhsbZSK0eP9rtlP81Ce2wJEgqXeuwvoHDwSUjM60PrsRTt4buA7yDx7lW01/vQ3r8aibxrsnwI8CAfn4D2QovHPQX91r6IfgelOMhKaH+X+QshhBBCCCGEEEL4b/EWJHwcj4oTzKeG2N6B3EgbUl1NAF9DhSB2QqLIDCTutCNB5mhq/ruRPh/mZ2b4G3v5fAckqkxDAso17s9VSMBa6ne7kFBSnF3zkaizmDcO9y1/1zWMdRrLF1sYQS1igdsvRVDWRiLSUT4/nSpYreo+/ML3HkWCD8jVVVx127hPb6cKdu9DYbPLkNDVmAdwP6qT7mJqkY+h1Iq8C6nOsdeRyPRDqkOxUQBs9b3Vqa6/n1Kr+D6E5hYk2pVw4S73peT/+xhyDi5DuQpLvsIPeGx9VNdoFwrpxnNSRMxfeGxl/jqpocBHorku1YSHUUOaQes2ouF8tK8VruXPVwkuBUHK3l6C1rrL31qK9tqVaO9dQ81huRTt0cVIxJ6LRLs2NM9HIdEPlAfxGPQbaPc709DvZkf0m/manx2CflMbeWx3IhGx9PNq9JucSxVJQwghhBBCCCGEEP5i3oIEhyFIpGhD7qtDkDupVKz9JBLwyvFrKFR0DBJWnkJVTgcCayDn2OYo79to31uGhJEhqIDCIUh4ugMJMdOQ0HUMcgCOogp81yCRphUJNF1IEOlCAksfNd/bigLgYn+rD7neQOJbD9WR9Q4kuJzj84/4+b183t/fWs3nbUjcAYllLT7e3N/eHIW3LkVhsaDiDmf7eC4qBAES8k72cckDWIpvbIBCXJf6/g1UZ+BUqvOuz33en1pYo1EAbEdFLbakFhL5PVU8m0Bd66X+5gZo/lZHDrciSJ7sPgP8Dq0HqCBKuX6Y21l5hTkBzVUpHHMxtbJxPzTHZY72dF9LCPE5brO44H6D1vD9Pv+Kn/+B23yzAiF9no/GPTQP7a0uJCIWgXAU2ovHor05zdfvQE7Hg9FefhaFxS9De/1lJLBuipyDa6JQ6cFI3OtFv53T0W/pkx7DCOBffXwDCpU+FIW9l4rGg/39txBCCCGEEEIIIYTwF7A6ElV2QkUuzkLVewE+j8S6tVCOuA4kdLT7nZOBI6huwONQWOfuVIdfM3J/7e53+iEh8V63NxOJG1cClyOxpROJWzOQGLTU18b52wuQiNRFLZKwlFrxt1H4KeISSFBZgtx2oArDjY6171OFNJBjcDHVdbUQhSWD3HQ9npt+/vZPfG8ccgKCxNUpPh5ADfG9ymOHmhsO/7/Tx23IEbemx7IOElSL2DgchRbj8e+ChLviOmwUALt8bxeqmHgvKn6B2zwSCaHFTfhT6vzdsUIf7/HxTGp14dnUPH6TqNVvG12RP0ZztRqau260h0DicREQV/W3iyhZBNlSFXjbFc7X8xhL3kR4YxGw2+NfjPZOF7Xybrv72elnzqaG5XaivXm5x/gotervvcj518/vfR2FezdTHbG7o/D3IjgP8bhP9TvtSNhrR7+1t/r8837+1+i3+TZgZ7+zOiGEEEIIIYQQQgh/IcOBz/p4f1TNdxfk7iqhtU8hwWRHFBJbcsdthUSTI5HosxS5+jqA7VC457nIfdZOdVb9FomJ+6G8cdORyHKjnxng781CIlar3y+OraVIYOnizZ1/t/leCS8F5Wib1nD+IBKA+vn8WWouvJX93ZKH7Rv+xkY+nwvc6uOrkIgEynfXiwSuzdynzajhsps1XF8PCUaliEdjHsCRVIGvhOJ+mlp993ZUpAKqy3H7hrYaBcBS+ONgas7CF5Cwh9vcDrkPi4B4n5/BfWrMPfgNJEiuOJ73ABtTHX9rue2SF3GB5wrPXXEPbsjyjsub0NyXIiEzG8bSD4Uul+rCIMH41Ybz0z3mP/KnxUGKW7QT7aGlVBdgu787DO2DXuAKtCf/4HemI4Fvb7Rf+lPDdduRkHwOEsS38TuP+pkp6LcyFtjafV2KhNedqG7axZ7ni3z9Nmrl5s8iMTKEEEIIIYQQQgjhL+Zy//VHIY99KJzxZCRelGIY05BQsyYSTK5Ewkw3CkW9nlrYYTFV3OtCDqlpSBzqQs6tpUgQ6kCup07kBuxDAscjSOjpROLMAqpQ003N6/ZGOf8OdD8O8P09fL6uv3e7z1d1uyU/3dv9jUt8XopXbOXzMVTRbS/fWx+5sXqQCAcSgy738RSqq28qtTDIAuTqwu9+FeXYK3kAf0cVI6ei+V7V41uP6lDDc3IyEpyKQNgoAPYi19xJ1CIhM9F6rec2V0ViV8m5N8N9KPn/Pu4+FoHxLKroeXPDe3c0HF/e8L2D/e4anrNGwe9FqsNwK9/bzecXI9H47T5/DDkFSwjsILRH1vP5Hn7/+z4/kD91ApYqwX3UvH9dHs88t7cI7cHn/eyjaO98x/cX+N0D3b9N0R5/yffH+tkSkn0iEvIu9XulGnQX+k1tSM1DuT612MxT7ucoFPZcfq8hhBBCCCGEEEIIf5bdkIBUimrMReLQjiyf624UciptiUSd4dRcab9BFYKLaHESErpuRULLIyiM8Wgk9AxGoaN9qAjCYiRYtaE8aB2oouq9yJVXqrNORoJKCxJOlvq4hyriNAo8nVRBD4+zF/iEzz/vdw73eRGcSq6+fXxeHFqDqdVsN/e9UsBhKjXcd6DnEeBXSBRaGYULl3x4x1MdeDdShbIx1JDZkgfwCywv5o1ouL8nEhtLW5ORKNRYEbhRACyFOi6jhiS3oXx5e1Dz+z1Pddb1ovX9dsP9u5CoW8ZeKgS3eWwl7+GPfNzpucBzU55/pGHsX0VzuqXPX6OGlf+L7+3n88NYXpAt59v7/KPudxGiyzws4U+dgD3+a2X5fdXpOVro8xa0J/8fe28apWdZbe1exBgRMWJ2hG2DiCggAoKKoltRNh+KKIoIIoqKAqKAKFsEYYOAoiAiIL0E6aJEegg9CX0ghC4hIQkJpCNJVaWpSlWqr7feyvdjzjXu5y2yzxnnz9mga46RUfX0d1tjcDHXWrejNfqKn9nFP+/x++5A+f0OQGt+ivu5Du2J6yrtWoJyFv6ekttyGgKI27h/z/veN/mePREQDBfsE2htByhNpVKpVCqVSqVSqVQqlWrQY8iptRtydi2oXJuNwkH3RmG9K5AbbAHwBxTWOR0Bsq0RvLgdQYmXEZiKPHOTERjpQDniLkVQ5FigBbmjXkFFPu5GgGWxz0/3O/t8by9ykwW8icIOVWfX1ggkDVDy9YEKm3RSXGInI1D0ER+f5ndu6eOHKTBvE7/vVB/fjEJHAXbn1eGuByP41UuBX70of98oSjGScPuNRiAo3vkCxaEYsOu0yvVm5NbclQIIZ/iZyOEHjQBwHfB2GsOGa8B/oHDsFp9b7W/tSCkWcgsF+q32/aPd9h2BPXzvhiivXcDCKgT9DiUseivfv7vvW1Xp7ylorN/u4xZKFen3uc2n+3hHv/MUH/8bmuNJFE3w+7alFCNZX2GQQUpIeYvbHc7VTgTsutEavdrHXWgujkXr6zK0xjvQmg8w3Idg84v+/XYEFbdFe2i6x+UsBB6X+r0L0B7clTL+oD22IwLEt1JgaSqVSqVSqVQqlUqlUqlUg36EilwAbIDcdp9AhR+akQvqARQK/Gffdx6CWJsimPE0cn4NIOh1GoJD2yJ4MtPvuRaFlp6K4FkrgmuPohDIBxAwfMb3P45ASTeCYZGjbdDXBykAsOrqeoWSyy+gVOT/G4EcZ4soeeUeRCDmzT6ejuALKCSzh5Kv7gR/8x2UwikBop6nuPNupITtVsNfb6A4JZ9x30HjfjqquBtVf8+n5AFcQYF99crzd1KKg4xE8xSg7H8CgCCw+bDHYB0CT3dW2h+5AM+i5OdrQmug2sbTKMVIHqFUiF6M5hj3PQqELEfhr6Dw7gj3PQ2N5UYIztZQ7jzQ2uhBBTFAcxPwckN//yEfr29+z0BjtoePR6E5GB4OHACwt/Kzz23s9u+Puy3PuL2T3bdH0By1Ioj5a5S/8lrfP9Pv28b9Og/tlQG0d55COTTHor0VeRb/7L494OebUQGVT7jfG/i+q1CV4FQqlUqlUqlUKpVKpVKpV2kbBMz2RoUGuinFN66jgIjDEeh4F3IbLUHQaikKZ3wbxdl1AwIwbX7fZxBU+y5yLXWjQg0XoFDhKQi+3EUJ2+1Hueke87VoV5f/VQt+VMM5P+jvzqMAoMj/F3n5RiM3VxUaraTAq9FuR1SejVxyu/h4EQqZBjgRQZy3Upx8n0SFMSLnYLUAxha+Z1sUUjvg799MKV7RiqDVjpQ8gA+iUE8qz09A+eXwt7b3ewKOrUOQLgDgphQAGE7B7SlAcTbK4RcOORDwepCS/29H4LeUnH/z/Z4R7stBaE0Nua/VQigxjmM8RkPI1bgRmu+oOv0kJSx4Fz/zDR+PR3MTeQCfRXMXc/0AmttNfBwVniMX5AgErdsoBUuG5wSs+R1RrKbHfXsUAcx+j0kPcgLWfO1WtKbn+9mXEeSbgcLNu9CeeQk5Azf2s5ugPbTU15f4Xe9C8PNHbvuf0Z4c53Z1oz37JQRcI3Q6lUqlUqlUKpVKpVKpVAoQ/DgaQbchlHfseOTQC0fbV1Fes/cBF6OQxlYEOx5B7qtxyHm0F4Io7Qgk3epvLEX52QYQ1HkZwZynEbwZQA65buSmqiFgci+CMa8goDKAwEu98nO4828bt3us2/o8BQz9gsYiINv6Wxf4+H3+xnk+jnx0keNvEgoNHQFsR2PhihWUvH1TEHzE58LtNxk5vPD1u/17L8qTt4v7s5GfC2dcn79zMoJWuG+/QG7EONeNAOtlFHg2hEKZAwC+jwL2Fvre7/hZ/K4TUShrh8+1otDaAyjh3JGncCMKGD2SxqrBATPnUkJglyDwFWMwpTJOEWa9v9/5YTTWqymhvF/2tb19fC6aswjXPh/N6Yd8HMDxFz7eAK2tDkoI+Ad5tRNwiLLGBvzOeWgt19HczfT5yQgE/sX3PovcfPuh0N3FPv9j938bVEV4PoJ964Avoj00DrlQH/HYtLqtl6C5u5uS5+90tFdPRHt3CI370e5TKpVKpVKpVCqVSqVSqX9xbYegxTgE424EDvG1fRD02wZVd+1HbqPrEIwZBXwehY9+BIG8DuRO60Ew5lcoJPFG5P66CcGhsSiv2jy/91cIPt3v+x5AsGoQAZLZCLisQGGSnQi6DNDo/BtCcKWNUql4c98fIa0gkDJIcfIFIAp32LdorDp7pdu9CYKdXRRX4LV+/0iUxy8ceJtTINVm/n0viqtua1SVNpx/d1JcfJ0I6lUr7M5GDrutKG7AyA24W+W+FuQaPIUSblxDYbwBAHet3B/Vgn9DyftX8ztv8jfC9fcB5CycXbnvywgYR2XbOQhAhRPw0GF93stjsRkFrm6OQOwQgmAj0TzHGI/3+zf0HPSivHtQqjIf5ONw+gXgjSrIUcUZtFa7/F3QWmlDkHm4EzDA31r/W+n3z0ZrcxDtkwd8331o/Z+I1vY8j+tYBHFv8jM3IOh8JqqE3YPmpsPt2xE5U3dHe201cnqu9Hv/4Pm422MA8D2//xtoT/eiPZ5KpVKpVCqVSqVSqVTqX1gboFDGrXx8BMoDuD2CfoO+fhECdGP8TC+CD2cjqLEQOaDG+T2rUP6ypcgJeDFySr3b72z2z30RzAjwdyOCHl3INRVFQZb7mXD9RaXf4UU/PoDg0VwEUgLwvA8BlsizBwJuvZV7zqARCo7zt97j4yXuAxTotBsCXR2UAiNPo9DS+Ebk/7uPUlil6obrQbDvY5QCIFUYWPP3LqDkARzwuQkIMI1y/0cjMHUdcBilIvAAynsXAPA/fQ7fcxhyo81B4ajrEGyb6298uXJ/k9vyZRrh5J2UQiC7ICjY4+tV1+MCjwVofdzp3yOHJP5mBxrbqNAcMHYmpQLzu9EcXeHjXdymyPO4OZrjqGIMctUFoI53dPj7oyiAdXg48CDFDdjscehCa3SBf3+IAvgm+f6v+bjJbXs3ch9egpx/TSjPZhR0ucLjtQjtrbPdph6Pxxi0Fy+i7KOz0Z69ilK5eiu09iI3YCqVSqVSqVQqlUqlUql/YY0DfooAVIQvLka5yJqQawvk7NsTuYy6ENj7K4IUGyCIdDMCE3UE9a5CxSMORrCiA4GMT1By79X8nicQTGlC0Gauv9GHQEqc76IAwGrIZh9yTYFAyUzfG6BnW99TrQg7Fbm6Igx0otsXxy+g/IMjUB67Kly6A7nGRlCA4E4I8NSBbyO3Wg250uL87pX7xyBYt8zvbAXOQdVc6whIRZhtNQ/gIgSKjqQ47/r93gdQvsQvUKBdL3LEBQDcjxKm249ceY+gfHb7UEJ8O/2NK/zNcALuRAlPHlnp1x8pOQGXuW/VvIef973vQWHKgx6DcFxu7ncH8BvhMQ5I+FuP5xa+toziRhyL5u7OynE7CosN3YfWQOTI29LjN5MSIr69x6a6tiLHZLevNfk9ff7GXP/ehNbwE2jt1zyma5HrshvtgWYUcn0icgJO8vsvQnvoMApov9Lf6PKY7UnJAbm133UeAtQRRv9RNG9XkUqlUqlUKpVKpVKpVOpfWhsAn0YgqwcVJDgLufcCmt2IoMMXfb0bFet4Gvim71kD/AQ5qHpQOOlLKP/aFcgd1Ypy/n0agYopCFZciAo9zKMUErkHgZOlCDp1UpxXfay/2u8PEWgJp1tomtsUwGdHv+s2H0el2GZKteAXfTwCwatOFNIKKh5SR7B0FAI7N/ra4xRn2jUI2oxAoaqRn+9hSl7AVSh8OCrp7oTgTbj8eoBjPJ7xfD/KwXcLAl+bU6r+rkSA7EoUmrotpahHuPwCAB5KcQfWfe88P3s6pZjGkL8xy9+s5v9r873HUJx+zQgof8TPvtNjEaHIL3oM4vnxaB22UypQv+KxBMGxtWisP+q2RiGMO92Hjd3W5srYjvJxtQLwrWh9fMTH27jdT1XuCWfkgyg8e33VgfsoTtRO5H5dRiles8z9meexvsjvnILA+mfQ/mjzeExA4/8ymuseBBR/TKmqfAAKYb+dUjhnT7Q3Y/1tgVyEZ1H26u0IPKYLMJVKpVKpVCqVSqVSqX9BnYCgzCwEDLpQ0QEQkDgEwbKHfe1JBGOu9D3nILfXecjF9RgqTvEQ8CYE7+YjCHMXCvV9ElUA7vXzjyP40u3zVyHIMt3nh/yeTgQQa5Tw3yoAvKnSr6t9/buVc48iaLOTj3dBQCZCdjdGMOaFYcdTK/dXC0jcj2DlKErOvz2Q228A+DUCct2oGMWGbvcJCKzWEQg91u0agWDeJATMIlfeJBQqGoBwM0oewB9SCnZEvr4ZCGyeSMnRGJV+O1CBkQCAR1GKe0S472pUffdWVDSlmlewm+LwnD2sTTNQyGrk+Xunx2iO+9bnNn2KUozkBI/JhqiARw/wRpS3cAB4O3IU1j3Gozzm97s9x9JYjXkqmrONffzCsOPr/N64f0e36zGKDkZrZ3zl3I00AsAIA66hNdmJ1mgUz5nu36/yGHajtTzF/ez1PU8gF+ZNCLZGYZE3oT10its2iPbYH5EjF7/7Bn+vC+3RHZAz9x++582+9gc0D6uAX5JKpVKpVCqVSqVSqVTqX0rfoTE08hHgS8C7EJRoQ+6pqxHgAYWlPo6KLcxHcON3CLB9AYV3Rm60NgRpTgSu9/0dCILcj8JUexEIudS/v4RcUJ3+9jIEU8IBGOClCv86ECT5fqUvZyA4dGLl3H1+/pM+/qyfC6C5qb/ziI+3RcDoMh9H5eBdEIxqo4QS3+J2jEJgqwa8A0G2GgpFPQcBmRHuc8DGHuAkj2kNgcOFCPDs7TZGBdwzUe695Qg2rvPPFe7zDQjo7ovgFhTgtgK5ywIAnuZzW1CqAfei4hGzEPg6w/dUv7UcuTbPpFRCHkT5AK+nhAnXEFA7ieIOnOW+j/BYnINAXw1VrB3r33/ld3R4bKERugaQPc7XLkVzFS7PyTQW+LjCbfycjz+B1kLkIcTfrKP1HAog2MH6IeAAWjMBqsOt+rL/9aI8f1P9+2R/81y/cx6CeWcC/0XJB9iM9tIXEAT8HcX19y20B6MvM5BzMgrf3Iz2cDwbmub+pFKpVCqVSqVSqVQqlfoX0oYIOGyKXFLXo9DLVgSSmlHY4EYIpnwIwachBGN+g8IkQdDhYb+vC1UdfRC5mJYhiHQRcidNRHBqCgoVXYbcSf0IDnX59w4EVbooIZfD8/5FCOtvff7cSv+O8LlLK+dupbjlAP6P33mBjwP6hTMwqtUe6eO7KCGnO/vaEQhorUHhliAQ9KR/fwXBzoBe51Gq3e6MQn4jPLYLOBVBs+hbHwo7vhU5uXai5AHs8venIhh5qt8VRSxwf3ZHYOksCgA8y+c+R3H5RZXfVX7XJN97BAJQb6CEKs9GbsPDKLCxE7lAf03JS7jKfdzZz25LIwx9AM0zHrNF/v02FP46EoX81lEI8MYoJPhu3/djSqVl0NxVYeAFaI739PFnfD3mCkrOyp9Uzp3jc7+v9G14PsAh9z1cgB0+7vK49aP9tBy4HIG7XrQH/o7gYLP/hXv2w2is1/j4Zn//QbTOJ/u7f3Yfu4C3UIr53OhvLkH7bWO0x9egPZ9KpVKpVCqVSqVSqVTqX0hvQNDuSeQcehgVLwhI0IxA0v4IuLSiSqMtwHsprrI7EYR4EFXa7Ua5AdciR9+1CKbc7GtPIlfhNAROViNH2QByvj3p33sQQAk4WOPVRT+OqPRnf98TsA1UdKKGgEvoOp/by8df9XvP9vEePo5CH8dRClxE0Ylw71ULUuxGAVHb+fcDUP61un8e575tiHIoPkdjgYwrPb6j/MwXkCPxab83QF3kAZyJwOBFCPhUi36sQ466bhQOvcj3BQC8yOe+63veTgkXHvC7lvi+W/yt/Sn5/2pu01PIARqh0JF772r3adB9fBblsKuGQ++CYNaufncdAbAv+ffPUwqv/NbffQGBrhGUQinH+1o4PyMH5Nk+/pqPv+B3BeAFgcCosozfO8nnDqzc9yNeXRQkQtJjjfZ47KZ6bAc8fqvRWp+GHH+Rl/ImBEtvRnulA81rN9pLD/q5O9G62BLtvRYUEtyG9tk3gPf7PCj8twmtnQhlfwjt+VQqlUqlUqlUKpVKpVL/AtoVOeWWI+gwF4Wr4nMfQPBhNnINPYxAxM98T4QwzkDw5seogvBfUIjhEAIOj6JwxZsQ2JiJoNDNyNm1DDnd6v79CQRMFiDwFLn+IuQ3/gWAucrPXlfp244IiCxG4aqgYh29CD4FGIyQ0IA+B/hdp/n42zQ6/yb4HZuj6rX9yL0IyvMWhT+uQzB0FAKfncjB9ojbBIJB4ylOvu2Qq2sucmrVUZjy0yiE8wAK+BtAeeNmI6fXOI/Vfsh5tpHHZiPfuycCtyegYhPXUADg1T53gu/Z089U39Hndy/2mN2IXIj7UUBjgLJHPcYB9TZ1nya7j+EcHE8paLLIz41E8zbeY9dJgXSvoLUDWmP9nofNPSdx3w89dj/08ak+jkI1X6Ex5HuEx7iPEha+CYLQXZRq0gB/87uupjEUOP7VKGHBS9AaHkBrermf/RWCcu1oD1yJQqLXIDfjgWi+n/Q7D3Z/j0F7bAjtuT9RQpd/hvbmw37PHARMt/J3N0DzMAeFJC9HMP5TpFKpVCqVSqVSqVQqlfqn1n0IymyLQgc7kPvrDSi0dzZyND1Ayb92KAItEZo6H1UFfhFVVL2QUoygFeUgexQBh5cReLoAwZGVvn8pgj7tCHp0IedTDwJOPb4eYb9V+HeJ27UnJXdgAL9N/PxaCsTZ0v1cRCkKcYHfe5CPD/HxCT6OnH/7+XiW2z6K4hr8lr/X4z5Grr77/Hs9r/PrAAAgAElEQVSHxy1y2/0EOe4GgTEIHk6lFM/YDsGuhxEQqvk9AwgIzUJusAs9tnvRCO1G+5k9ERD6OQJo5yPn3AQKAJzgc+d5Lo7xXOzhd4ymESZ+yd+8CFWNnoVA6YDbGCDwIV+LPm3t7810n6NAy4/8+1gETjv8nnvQGorqyb0e4wMpbr5RnotZnpv9aCzScoKPf+DjePYiH2+M1kIHpdr1dmjNLKFxLc13GyKE+FIaIWCEpq+lce12+d80j2uEtF+A9tcSNI8X+5llaM+8y/1/2M9fgNbxPLTn5qM9eJLH7VC362YEA1ejPXw/2tNv97ffgvb8ZEohlVQqlUqlUqlUKpVKpVL/pNoNgafQ3Sjf2jLk2JqJQgg/hNxQ26D8gIPIBXYSyl/2JgRgViCn04t+3xKfX4XgxW+Rc6kbAcXJvqcP5aHrRDDnMZ8b8L82Su6/KvxbR3FxgRxOixB0idx+kVuuhkJLoRSwWI2q1EIJEY0CIpFP7qc+vsT9jsIfqykFUc51O9+HCmBE+G+E/O6HHIZ15Hy7CAGdkQgE3Ulxy33QY/8YKuAxiEJle92WqShn4mkel8inN5KSV68Xga7I37fI7Z+NcsFNRfAvAOA9FBA42+1bjPI2rva7eikgbxQlb2Gb2zIFwdujfO+Gbvt+CGDNRY7SIVR44073PfIXXuSxCbC3LyVcem///mXkahtAsBJURTeqHO/ibwYUPprGfH7fpzHEezM/24SAJG5vDQG0cIl+Fq3ZxWiNhf5K41oMCNjncYn124/mM8J/z6I4BCej0O1uBAjPp4DBmb4Hj98TaI/NQnvu72gP/tX9vh7N0QK0Z9+M9ndUFb6Vki8RSnXnVCqVSqVSqVQqlUqlUv/E2gCBvaNQ/rOouLsD8DbkFnozynnXh6DEb5DD6W0IzjQhuLAQwYvNkGvpfgTifo2cTbdScp/9BRVB6EP5y8I19TgCI8v9vj5fG+TVYb9DwNcRbFqCwnFDNyMQc2rl3Lk+F/njRiHY1Q1s73MRKhrhvsf6+DAf3+7vbYHCTvsoYafPIng5AoX89iDn3NX+xkbu3yu+Zy2ClwG3tkThmY9SCo6M8Rz8HgGzuQhi9fvaECUMeT8EmE5Bc3gZAkU3oNx8dyJINxnBqAcoADDOTXIb70AhsTcgZ+BlfucpaG738zff5TaM8fH33Yc7UbXatb5WRwD0UV/fnAJJx/m+EWgeH0drrttjN9pjOd73rET5EkGutz4aw4ADcB3qb/yXj3/i49N9vL2/MQetBSgFZM6n6GSfu7ly7t0IBvZ6LIavy6gOPOh7FqA13e/+dfraH93+xz0Oj7pNtyKIear7fr/H/d8R+FyE9lwTCll+m8fwN2gN9AH/6XHs8PUdKZWJb0VrfBH6G5BKpVKpVCqVSqVSqVTqn1TvRO6hNahQw6E+14GgSwCyl/3zaUqI4WOokmkLxRV3NHIk3YgAyE9QwY3TkRtqHso5dityfD2G4MtLFHDT6d87kAux279H0Y8qaIlw3E0Q6KpRQB3IwTeIwlBH+lyE3N5Zue9B5NKKYhHH0xhC+t8+/o6Pp7qdY/3MoO99MwrvjGrISykOwZU+v4m/dUqlLe9GjsmplOIhW6A5uRbBt5UUp98Y9/VrCPac6XG8EYGkRxDYm4aA5QyP+XNoPp6hgL/4Gb8/43ue8zPT/Y5pvv6Qv3EjgpFnug1fc5s2cRs/5jZf7j40u091VKxjCloP76aEAZ/isRnjsVqJ4NQMSmXgBz3GG3nMBz0HY9E6mer7Im/jyT4OkBsh3Z/3tx6maKLfF6HCb/D3BilAGJRXsIbAaIQH78/6i4J0oDW8DAG6XrR27qGEq89Be6EL7Z/LPTataO9M9PeHEJD9O3KChtux2c9MqbTvaUquvznAG4G3uj3vQvuk2WN5EgKLqVQqlUqlUqlUKpVKpf7JdD2CAZcjF10TpSrofcjVthzlGLsDgZifoAIIJyOoMQNVaZ2NIMw9lIquS31umd9zLfBnBLpWIth3IwIYARK7/e3+yr9wMw2Hf0MoPLIajvl733cfBfjtiCDHSkp+t138rXmUHIDj3ZaDfXwUjQDp95Rw1hHIOdWMIOkxlGqzO/q+k2msWLuz7zkQFYCoIWg1H4XNfoxSGOMl5Mj7ufs+1s9+xuNxLnIbPoRcaS+i8NnlqPLtShSSu8rfXonA6zIUKvoSCr+eTgGA031uPnIlLvV3Vvidq/zOlR6LZf7mi27DQwganovA1X+4P2Pdh58jd+FLlIInn/S3X6LkRTyJkqPvo8jRVkOh1Sd7bHekVGf+OaXS8CLPzX6+70zPXQDco318sK+P9/FG7kcPWhv4eyvQ2onckSPR2qpX3o3bHkVw1hcK3Erjmr7P32pGrr9BFJZ9D9oHLyMH4ni0L5chN99StLf6fe8eaO9tj0J5uz1G16K9ugGCty+htXEdpWDIG/zur6P914H+JqRSqVQqlUqlUqlUKpX6J9LxyOEVehI5ny5GTqTFKAx4BwQkxqCCB4MoLPMYBBfGICdYJ3KqLUauqCbkLHzE37obQY97EfRYhRxUUWhhGYJLncixFBV/q1V/q3DlvW7XAI3urF383ciNB8pF9wylMAUIHC73vVv73BkI2pzo46gkG7AnQoi/hMBhq/sAAmsDCDJGqOlngSP8+84en15K0YknEVyqo6IS0/y+L/jcZh6zkxDwe8LvaEbuxihGMUgBjAHXdqVUNu53O9a6L82Uoh8BAKMoSLPvWetv9Psdg5R8hpGn76M+/wW380g/H+Hdz7ntPe5L3fe+gEKS/9PndvRYLPbY9Pod8Z0fI/gZodmRAzByP76A5ntjFDo9SMkP+DsaQ7h/SeOcboXWwHK3EbRGBjzmb/a5ndB8t1OqBOP2DKC1+H7WHwocVYEH0druQmt9GVr7ne7DKrTGHvaY3Y2A3yPuXxPaW4s8Pp1o770d5e08Bu3NyIE4xu3awWO8mJJr8Qce89BtFHdkKpVKpVKpVCqVSqVSqX8SjabkFPscctP1IsfYhyhhlpsid9AaBB1WI/i2DYJEKxG4uhDBkgGKi+kQ5C5agcDH35CbsAeF7F6EQMktCGrUkVtpjf/1+Nxw918U8gBBu0EEm6KIwyjkoKvm+wNBoToCkCC32BNu894+dySNFWIjlDRywv0FAZ0IO+2khF4+SQFRtyBH1hi3pc3tavL9H/Z790egpwnBqDrKt7jI5/+CwFDkCdzKY7E9BRwOINdb/Iz2haNwHZrjGqW67yX+RgDAhT7X7ntqbsc6ClSMcOf9hn1zT7dlO9/3Pt/3Zbf9L+7LYr8z+tHk7+/vc9ujUNgmFLLa5rEbQ8mLt7HPT/OYP+Q5eCcCijW05qDM97d9fBGN+R33dvunUhyjl/PqHICn+9yDlFyBY1CYbR2twdA3ebULsO72t6F1/bLPLUTuyXVo/7yAAN1k5P6bg/bO5WgvLfBxDRUAuRCB1FVoL26D8iCu9jNrfH5TtJfb0d4+A+31KAASOTtHk0qlUqlUKpVKpVKpVOqfSm9EQGMZCn/8LwQM3urrjyJYFy63KKZxI3IZLUcQYTfgqwiiPOdzX0NOtSkIOtyPwjCbEHS60r8vQYBijZ/to8DGVQjODCJYUoUqHahCbGgrv6ufV+cArKHwzLf5XDjiXqAAj8todP7t4+cm+jgq8f7Fx9f4+q6o4u4Acs9FKOps37cYhdSOcp/uozj+foAgTxTJGEChwZP8XFTAfQ/FybcGhfIuRLngZiGANsM/56L5WYpgVwcF5n3B47evx/l8VIwkAOArPteHwN46irvwGL/rQr/7Bn8rvn03pdjIQrexneIcjIIf+6L5n4SceJHvby2Cw4dQHIH3ur+jPIZRCXc2JfR6gt+xreei5rmB4laNPJG3+nqsmxNphMGj3Yd+tJ7j3HQ/NzwHYFTw/WDl/Fc9TlVYHbkAB9CaDijXh9Z8G8UF24yq/0Zxj//2WLUjMHqZv9HrZ6f6eDefWw5chdYAaM/ORnt4ItrTIIjajnIovoj+BjyI/iakUqlUKpVKpVKpVCqV+ifQWAQWliIXVQsl99/tqFjCRciJNBc5q/ZFEO/byPG3FIWc3obAyL0Icnzdv5+JQMgMVDTkGQQ5nkVgZg0CHJchSPM0giMtCJisQcAkwn+rxRVGI/BTR4AxXH+giqp1BEYC7m3h9vZQXH7vRrCkkxLOeaTbEnnQPokgzdPIKRihpZE37ma38eOUfHRnILdVLwJOkf9uPApNjlDU83w+KvxO8Jj1UmDZQQjM3IocYS8jANeK4FUXcJx/nuoxu8h9vQOBqxcQlGtD4Z3hOKyjfH4rKABwhc9V7znBz0Yl4OmoeMpSFCq+xt+OtnSikN9Wt3We236r+3KA3xvVes9Eeek6PBYBJqN67y4on13kQbzFz21GCdfeA+VPHKBU6b3Wc7W35+5pvyPmOtZPQL1d3PblaG3gZ3vc7i18brTHqo5CdUNjEKCro/UzmvWHAQ8g8Fb3eK9CeyPgcpPHezzaK2t9/VC0l6Ia9H0Up+e9CHTfhkKyl6I9+i20Z/dFe3guJfz352ivg5yPLchJ+Ar62zCWVCqVSqVSqVQqlUqlUq9rXY5gwE4+fhrltNsKeABBit+hcM41KNRwPwQtpgHfR6GIG6Pwyyg8sJaSZ2w5CpuMKrIRVjobgZZbEABpRo6xfr+7x9eHKv+q7r9rK/3YCQGLARpzl21HcSd+t3L+Gr/rah+PQDCrWu03nFSzUN7ALRF0WeT+RhhtOKzudNu3pcCtYyiw7zRKeOz3ELypIQC2FEGXr1Ly6q32uycgOHQggkNRIORTlByE4QqsI1g1RAkTPsbjOAGFkc5BoK0bAch1CNi1UQBgG3LlrQMO91xcV3l+Aprjn/kbX/Y396ocR9vqbmtUAx5EQGoVgok3IEgYOf72RfO/FDkeax6r71LyBp5KgYI/9u/f9dj3AXd5Tm70858H3oLWagfKzzcKhb32obkGOV/rfn6Ez13tcwF7QUA2XHbbVc4fj9bgUsqeAq3VqgswwtiHKJWup6H1swBBuJX+ZhcCrj9DeycqMv+G4pzdAc1HFOR5CK3Rl5G7dJq/+Q20h9egEOuz3N7JaH1/Cf0NwO1/keJ0TaVSqVQqlUqlUqlUKvU61VgEX8LlczICaSuRq6qN4oJ6DsGw2ShH4JcRJOlAwGIyJX/aEgQr7kDusHMQaLgQQZfnEeC6EEGUcL71IzDUg/L/9fm5fl7tAAynVIAagF/7vkUor17oAgRAHkH5z3D7e93fcHUd6/vu9nvf6bFY7XvGIOiyGjnPdnX77vbzD/qdH0QgsY6A6Q8rvwf429bjuQQVHhlExTked5si7HcHf+MYj/ME5AB7DOUZnIbg4RTksrsNAdU/+blDPF7HIkh0F4I8LSgn4joE+zooALADwax1CN6u8Dfu9jt+7muH+BvneJxucxum+BvRvsfQmpng7x7j5yIEel+Pw+MIONY9Jos9Rtt6zM6kAOgfVn7/hce8F8Ev3M8B4NOeq9UIMo+h5MZb6d9H+P46goD4/BK/cx+f2witoTpa16HtELyuIdAbGuH7BilrNxyAUQW4D4U196C13+9x6vD3r3JbY99c6H79Ea3rO9FeW4z23lS0Dlv8jhHAVyh7dxYC8aC93UapFr2EUul6+N+GVCqVSqVSqVQqlUqlUq9jXY6gwgQEenoQcAEBtnNQiGAbAjkjEHC5GcGG1Qh6vA25lWYigHUKAkQrEXRYDPwIwZBxCGasRVVO233fcwiQLPS74t8AjfDv68i91ul/1Vx/YxF4CtdWAMKdEBTpQQ49UBXV5xGQOcLnPkZjCOgoFILZj4pWjEIuuG7kotoZQZwAT1N9bXNUSGMQOdUuoeSoewLBlQgRvpLixtrKP09x22aiUM21yHFZQ0CnTnEMftfnT/F9NyP31lwUhtqDoNsQcDYCYVGIZRDlG4yqzFP9+6987W9+T7OfHfK7ev3uuf7WzQg4neK2hGPv6xRXYA2tibXu0wy0Nk5xn9/vn2ehSsoR4rva7Yoci5d4TKPC7eYe86megwc9XzsjEBwh7KM8h30Igo2iMQR8Fz9/uNs6E60R0JrpQXsk3H0jKG7SacA7KBq+Pr9OYyjwgNvV6Z8Lff45tBc6UHhvJ1oHV1Ag8WLkClyJHH6nINfhTL/rbWhPtnpMbkYuzzegPdyGYO05FIffthQIOQH9TYgCKqlUKpVKpVKpVCqVSqVex/oopULuCShM8mIUYrkFcA8CIT9HIYJR9XcighHfA45CIY6X+N4TgKNRCHErAgqb+tpiCvzpR+GV4fSbjGBHuKLWIggS8C8AYHel/SMQwBhEoZPVsMv9K++oFgkZ5/5OQqG9ICdcnHsjjUUgvuZ7xlNCakHAbwCFAm+HYFUAqOf87XdSctV9EBVeiEIfrQgEVkN3FyIw9SuPV4QPfwPBmd97PK9GQO5aNCcX+RvHeZwO95hcisDQPATrasgl2Ycg2aN+7iyfCwDYB/zB1x5xX3spcO8ffudSSoGNw/3t43xv5Ci81m0NJ9sZ7ss3KGG8NZQvcDpyb0bo8FeRK7CVUiDkMUrewImocvVaiqttqq992HMz4D4A/NTvvc7HX0VzPAvN+UiUK6/usQatkTgXRULi2Q60Zg+onN8JrelBBO3eULnWQ2MuwAG/IwqB9Pt9k308B4Ux91Mg8GKP12ZoLbT6/qMp6+ZiBCaPRoCwhoDfez0H70eO0Bra4+9Fe/4SFDp8gtt/P4KoqVQqlUqlUqlUKpVKpV6H2gy52l5BUGQSCqkEQZO1CCycjoDMTsCbfX87gjivINfQLxBIuBT4OwqhnIKcSLsgeDETwY7tEfiYhfKTNSFw04dgxgv+fRCBvgidrLr/wiW19bD+TKFAvCgGMpJS5OHxyvld/L0uSnjnx5Azao1/B8HFOipGAYJb1dyB493Gg5Fzrxu52kYieLMGORKnIrCzqcdtIY1hrX9DcGgHSqXdRcjJeKPn4jSPzU89lsf5OKrs3oGceAtQXr1+SnXbaxCUWoGKjqxzH+a5jX+mFJGY6t/P87V5vnedz63wu8L59iu353p/ey4lLPUct/E433M0gnOnIRB1k/u42H0e9Bh0o7V0JiVceoHHblOP5VSP7Rp/cyRaF90Itn6b4mAEOQrrbgtoTusUl9v65n8ftEZWU4qGjKGstev9XZDrbhJan1PQmgxtjfbb8HUceS1jrfehvbHKvz+FXKsv+/wQApsDaE/1AZ9wG6cgqPd3tG5raC9u63E7w3OyFO3lnTzup6P1tZaSC/H77ssxvv/ZYf1JpVKpVCqVSqVSqVQq9TrQZug/+D/o4y8iiBIwoAlBLVCxgdsRtJqFgBqU0NCZCJy8B4Wy9qD8ZO2UfG4nIIixEAGgIxCguAtBvzoFfAx3/VWhyUrktpvh8w/RCCY+h8I5a8jVFqoWCfmVz42guPruQuGgVQfY73zfgX7uOZQDbk8E157yM2f6/uORM20tyrU2CoGy1SiMdBFywr0TAax7kYOy7ncuQzD0VLd/N0oF4KiSuwa5ytpQ1eQeSrXeCPH9k6/P8DcGUOhuP4JmkxBsuszjvRzNW50CAOs+t9z3RIXmSRSH4Nl+973+VhuqhhshwlH4pIdS7fkKSvXaPvetTnHqnY5g0zJKwZTv+xudHrtmj+XbPLYved5me+w3p4Das3xtmt//BQS/nvUYH+g5jirCkzxvb0RAdXgY+Qmsv8hHhG8vB/6zcn4z5LSsozDe7dEaHg4Bww3Y7vGeSQHdD1JC1HvRHnqZUsn5MD/3J4/1lWgvtvs9cxAUBO3dWR6z25HzFbTXmyigeS76mwCCl2tJAJhKpVKpVCqVSqVSqdTrUmcgMDOKEg44CYX+fh9BsZ2RQ2sAgY33I0fSiQgKzEewZCKCLAt8bhMEI2YjYHQGpVhEM4JBq3zvfARDViHwsxLBpgG3qVr5d6tK+z/j79VRmO3GlWs/9/fXoIqzoWqRkO197tMIXq1F0AlenQNuC+R8a0eFK7ZEsKQFgZEj3Y6LfLwGQZqNUWGFFShUNVyOUQ33TASY+lA4dhSRmO/7xrtdJ3k8fup7TkZAb5zb/jiCRatR+OcQgnEdyBV4o89dQynQciUCSvMq1wMADvncPEqOwnY/e03l+ov+RoC/S92G59ym1W5jv9tcQ9VsB4D/dt/+hqDUfAr83Nnf/RuChYPAxz0mrR7LFrcnqt2u8fko+HKU56LFz2zluWv3fLzPczuDxhyQe7pdbRRH3IcpRT5OpWh/f7cXrbnQxijvXt3P7Va59n5enQtwwH2MPbDK12f7+VX+TjOloM5v0d6cg9b6Jh7DhT4/Ee3N+e7PrzwW70d7ueb7dkSOzUM8JpMpYf+j0JyeQSqVSqVSqVQqlUqlUqnXpd6BQgeXITfQiQgAgRxEvQjGHYlAwV7ApxBsmIYAWgcKtWxHIOWtfm4JCi/8BnI+rfI3JiLYFWHDTyGoM4igzHJf7/R7ahRYEpDwqGH92BeBjRqCTRGS+SaUqy7chREyvL4iISNQ2GwduNXveC+lCuxXfM+DbuuRyA0429d3RbkCa35+rNu6BPg392sZxf03leJ+OwhBmsUUkPhFv+tXlArJTShfWzMCnh0oZ1sdQakhFKobYOwfPjceOdbaUT6+qDp7q69Hdd91FAC4zuee8j23+pk+BAAjlHS8r09ADssWlOsv3H91t7HDbW5GYLkZ5eHroOSb+yIF3C3y975VGaPHKC7AZR6PMe7rao/5rX7Xvp6THgTINgJ+4msPorx8w6tAj6RAuxsp62J9RT62Rmuq7nGOXJIjkVuy5rHYn0YdgdbF8GrWve5bH1orLT4/nQIoI+R7ItpLq9De2h+tncV+z2g/0472Zgfaq095PHZFe/lJtN5W+rn3uI33IuA8Ec1xFwq7TqVSqVQqlUqlUqlUKvU609cQvFqKwBfI7bMcFX9YhVxc5/jacQjILEfA4wIEX5r9jm+jsMKo5vor5ERbiMIJL0MgZjECTE3IFTYdAZwIf+xEQKKa/y9AyccQ4BpAbqhjh/XpCL+jj0bH0hbAMwjW3E6BNesrErK7j9egsFT8zTqCZyAnW7gO8c8ogvFJf/9p5MhqcV//3f1ahBxXAwianeln93Cfb0GAqhVBmBoq4lBHFZTryJlVRyG4vci99bLfH0DuajSHK1D4Zx0BoMkeywcooK/6+32V36e6LcN/f8D9i2IaKyiFSYY8TivdpnvdxrOHtf0I//yh+/jf7vODHoMe5FIbROG1EzxmO3gMV3pMmzzGm7h/fZ6Dw/zsbZ6jAHsn+zig3jU+3g3NeQclhLda5CNA3oZuXx1Bti0o+q372oHAWlXHIkfhgMfpYzSC7ch5uQIBt3a0PxaifdqH9tpUtIfmIGfei77nYkouxpPRXjwY7ddmtFcvQDkLl6O9HLkQz0H7cBVaj8vR3wLQ34alCNJHMZxUKpVKpVKpVCqVSqVSrwNNRQBgbxQiGSGVeyEA8QrKs/chBFi+7Z99yCW0LXJcLUNVZC9HedcGkEtrHAqFbUUhtIchuPIkgifdlKISL1LCTPsQzIkiIFX4t7bS/g0R/Oj3+VOG9e80BJDWopDZ0D6U4goBgtZXJGQkcpLVfW2Ex6rHfd4CAaNuBGM2cxsiBHgrBIEWeFyXImD1fo/JPEp+uzMo+e2+4nM/RQDobgR/5rltSzyG8/3uRxAsipDfy93nBSh/3RBycb2E5uY2BIN6kZNwmc9PRpB2CHiYUqxiLgoJj5x3d/vZJr9rwG2pfmuB23CFz13sNj7oa/OQk26J+zQPway73eejPAb7UPIkRn6+PX1/q8dypfuwaeW7W1FCgE/xtcWeq908d0s9l3t7bmP+J6K5rxb5+AfFUXoypVhNFI7BbV7rsTmdRp3saxGuvWHlWieNocBRBCT2QC8Cby/7nqvc7ps9hm0IOs/0mFzob0zx3GyO1sSjHqfVaO++x+9vQs7KJrTXt0N7fwX6W/Dvfu9myC05H1WtTqVSqVQqlUqlUqlUKvU60CE0/of81chF9BIqitCKwikjz90SlCfvNuDHvr/fv2+LQEwLCok8GLmq+lDF15cQdGpBQKYPwaco/PEMchz1+FoNwYs6jQBwALnbNqm0eySCPb0I8JxBKdYwEoWeDrh9B1aeO6Vy/v/43PqKhOyNIE2r+z8aOaVq7nvkXOtFcOprfv5Rj18zgi6bI9daq8er3WO1v/v5C4//K27bIIKudZQvr4YKkgyg4iqDqDBLHTkro/Lw45Sqt10e1zt8bh4CfXW3ZbLHvB0VUlnqa1Pcx7rPPeR7evzMIl+b7HcO+htN/ubffO5xt6kbVaQd8vwMug8DKLdf5JqrA9/x9VMolZJ/SgkBnonA6tYey0Ue21Ue67Ee+wHk6NzTcxM5KX/s783w8ac8P52eayhFPl6hFPnYA0GxKFISOsDnowJ2gMIR7muXv39B5Rr+9rV+XxUA1tG+qqG9EMD5eV97Ae2dPpTLssX9nu9x6kN78ztofbWgNf4hFP7cjyDiEcgJ+x8IjraivT7Wv4ebdwHFIQn6m3EIqVQqlUqlUqlUKpVKpV4XGoEgyEEo/G8VAjXv8vUrUCXcVuSOmuTzZyCgcTGCN+f795rfdSwCB3MQuPgmAhvfQbAj3G8LEMzpp4CetQiE9FPcfwEAa353CwIhj1AKeER/znQfelBBigAuG6Owx0EEjPaonJ/o9z1NCeUcXiRkFHKn1RFcGYEgUB2Fwo6iVBI+EwG+DgTP/t1j0QV8xH3vAHZB0OkZBP/qCLqsRQDrQQTdotjDqW7/2W7b333vdP/rpYS0PobgzyAl114/Anav+J6pfm4IAaDHkZus5muz/HsUF1nie6cjCFT3uyb73c0eo0E/G+65a9y2aGfkMqy5L4PuW34KgJoAACAASURBVBSHCRj5iPsXEPQXHqtOj12Hx3JHj+2LyKW21Ne2Q+uzjoDkKAr8jKq3V/v4HuTK+zCa82qRjy0ooc4TKUVmdqeA0Bsq50eitdfjf2dRgDRu1yN+roVSeKdaDXjQYxqu1/kU9+1Miouy1eP2XT/3TbTn5qA9+AsEvWtoj57nMbnEc/Ibt2kScjmuRuHfV/j8u9B+WuW5OQj9zaj2J5VKpVKpVCqVSqVSqdRrWCOAPyM4cCVy/lyCAMGnEGDoR86hUQgCTECwqAOFEO7neyYgaHAmpdromxE8WIaAxR8Q2Pi+n5mGgM4AggotCJjUKCCkWvn37Erb90JOqCG3c79hfTuNUkwhKhyDANEkipMq3F3b+D0B+Eay/iIh+yLYtArlb9sJQZg1wCfctxoCZGNR2GY3qmb7iPu6O4I4Xch91YOA3yUenwN83yXIufUsCgFe5HFa4N+f9Dsit98/PO5RYGMI5W+MAh4zK/1pdhtX+Xi27w0H5rMIqIUDLdpQ9zNP+B11v3MWpZDIc/49wONaShGWv7vNT6J1tMB9WuT3P+s+X+oxOMBjconHqMdj1ulv7u77HvEYd/mdYxG0rCG32i6eozbf9zFKjsl9PbfXUop8jEVr4Eqfm0eBzTt6LAP+bubzo1DodxSvOY1GULav3zPkvu5VuXY2ZZ2H63XI7e9BLs7Z7uvTbmM/Wm+DaG8tQHutB+29AKRnor05wc98He3dDs/BBI/FmxCc7Pdzn0KO00vdxyvdnvNJAJhKpVKpVCqVSqVSqdTrQnsgUPMQcmUd4vM7UvK7HYjCOg9HBRGiwu9oFM55Cwp9bEFA5TcIHvwEOYlu8jM/QHnkliHgFyDpdgRk2hGAaPLxoK8PD/99FFUureqDyKU46G+eRCOcOB6BnwHgr6gKLCh89ClKzr9w/h3k+3tQSCqognG1SMiGyJ1X9ziMRK6pcP9FaGqE+t6LwMnBlNDYgynVWPfymE9GTrJeSsjrL932SxFYGu/jKyrfD+D4EqU6bBSLeMjXV7qfHX5+OnKJDbpvzyPoU6O49SInY82/z/C9gwieTve7OpDbb6Xvfcjfjrb0IxAaQG6c2z6OEtIdoHbAcxZVgHtRHsZJ/v1LHrOnPVeDqABJ/H4fgrkx/ttQXID3e64u9fGDnst93Ye1lCIfx1BCow/yuS0orsZnKNWkN0JrKwrYHE/RCLQmA7TeX3kutCsCmMPDgONfG3I1rvb729DeCXD7DNpbc9Fea0fVi1ejIiT9yPH4UUo48M1o7YxGc9+O9vjhyMX5LUqeyB3dzu+hOX8Y/e2IIimpVCqVSqVSqVQqlUqlXoPaGAGXI3z8aeQEimqhcxHIAsGpVgQgDkXAbzMEAXoRYPkDAiOvIAfWlgh4PInCH2f5/ZchKDEJAYcmX+tHQGmVf++h5EALKLIcAaght+E3FFdf9GkcxcF2NY15Ao9yP2rI8TTa5z+JnG51VEV3jM9f4HuXIEAzEoGmapGQA/y9ZuQOi0q2s1DRiQBeP/A4RMXe+P04j1sfxUl5Owq/7aRUzD3JP3/nnxcg2DURQavFFGdfFNHooRQH6fH15R6/hR7LNT5+xW2O6x0ILC3070O+Nsv3DvnZGb4nrj/pb3X52wHQ7qI4BRe7zbe7D1GoIyDdSZT8gJ0ei9s8Nt/wWE3x2NU9lmdVfj/EY/6452AWAnOHeY4Cah1EY5GPCZ7jXd3GGiqmsYHvu4PiBAwIvTGClzW0to6haDRag70eh3GUEGGAN6IQ8haP3/Mew2o14H4/3+/7wpE7C+2ddrSXViOouRg5E89EDsHVwPs8H0vd1z+gPduL9vBmaD8d6ntagS+6jWdSwP13/P7PeEx+4rmo9imVSqVSqVQqlUqlUqnUa0x/pOT52hJBgCYU9vcB5BL6InJutSL4AnIbrUK5xBYCn0dgpxt4BwIvLSin2lWUkM7DEPh5CDnden19gOL8a/O3oghINfw3XFNj3O5OBEkeQCGdVR3n/tT9ve0q1w7ztUHkkgrgtzcCHYMoFHRDX4tw4SkIKA0vErIxBSJdALwbgZJeVAykmoPuQIpL7cjKM/dRwjkHkAtwEYJVt/td433PbR7r59yODuQqG0LQrdnveBhBuprvXeR7ViJI1ESBffPRPEf+xTUIii72nKzzfS/73ioUnInWQ4DF5/zNNSgP4YDb9CjFAdeBwOpz7svt7tvf3Nfb/cwij8UAcp/1+/nzKVWS7/P3vu3nAybu43ctQQVC4pnHPWfDi3yMdXuH0Pocg9bANX7/clQBF1+70XO5Aq2p0HYUd+gKGt2AoLU6ye/sRGG1/+ZrW7P+asCtCOatQfM2gPZOr9/1MJq7Qykh41eiPdjiPr/DY/0k8Dk0V+ejuXvG3/+Gv/Uy8AW/64PofxA0uT9b+t5xKCdgKpVKpVKpVCqVSqVSqdewRiOocSGCC+ci6PJWlD9sLgI1X0Xw5T5UFGENciuBIEAHcl4tRtVVOxGU+xwCFNciOPEycixdjkDEE8iZ1ILAznwEIwb8b5BGGHLwevrwTUoewOXIPVatsroXCnMdQkBrn8q1g/xMHbm7Io/b9xEE6feYjODVrrARlCIhi5Gz7LsI1ixFYb+RO+46ShXal4Dd3O+FCFoNohDXie73T3xuPAIws/2v2T+XIRgzw9+LUNBpvlZDQDLcjjMp8K+NUpglKs2+4na1UKBrQKBwhNV9rcXnX/GzUSF4DsVNGIVdwhU3xb8voxTSCOA33X1ZNqyP4QYd77E40mMz0WMV1ZEXeCx3o7EKc4DAKxFUW+qxOsRzVS3yMcJzGnO5q8+d4za2IQcnCABHwZgmGtfkPmjPDHk89q5cG4nWZjgsZ6MQ2+E6mMaQ90HKfmhBaybcgF3IHdmF9lQ7BeJe67HYDcHMTrQ3FyMHYAfau6C5avNY3If2+lf9njnob8Fb0dyci/5WXOC+hIs2lUqlUqlUKpVKpVKp1GtUn0ZgpA14v89di2DCXBS2uRJ4C7AVAg9PIDdVE3AypfjFSORC6kAut+UIKnWjwhgDKJy1F7mIFlCcX3VKqGmXf/bSCAADDPahfHrD8wBuhmBRNwI596JqrqGtKdVfVyH3V+QJ3A+5xMKd9m6fP97t6aK4uA7zcScChf+GIEwUCRlDCcU9GwHIbo/HxxF46gG+QnHvHeh+TUOFMmpu3yDKK9fpa20IoHV6rGsIhtURSFtKyQXY7t+f9/khSuXlgJ7hvFzon92U6surECxqooRlr/M98Uw4Det+Z1SkHfI3n3cb2t2mms9P9zO3uI8Pu09Pu4/TfDzO13/pZ//hse1D8C8qLH/F7VrsMY4iGHtRis485bmJKs1PIsffd/ytboqL7zjPcTdwos+9G62NOlorUXBmBFobkd/vARrz+22HQrIH/L6/UUBzaFfk1OvzfatoBIC97mun/y30t26jFDxp8X1/9Ds+4TF4Cc3Nt/yOh9FeXYNA3sloHt+L5qgf/S14C9r7d6G/BZejvw2gvwWRk/BTpFKpVCqVSqVSqVQqlXpNahNUiXUZAgNRTOFNlOIIP/S916NQwxbkDhqHwiJnIICwNQJgdyPYMBeFONZQ0YH7KCGGFyPAELnbbkYgIZxoS/zOfgQ+qk6ojRBsOZxSQKQNhQIHsAt9D7n9Irfdf1Fg32g/0+t/V1JcTHshB1UdhdJu5efOdZtaEfSLyrCDCHrtxKuLhByOQMwiVEAhwmKPcr/ryHEVVYF/4ucXINAyiHIc1inFJSZWftYpTrjpFBj3BCUH4vOU0NwWz89qH/cjkLeE4iaLwhNdvi+urfa5KMgSrs1X/N1+n19NcRLG8fOUKsJTKeHAMyjOx4BZA8iJGcVa6ihHXrghF3iMjvA9jyIXZqylIz3G04EdECgb8FwML/Kxk+du0HM5Ejk4w/l5nud+K89RQOqo2jvabYx19FfKOhoBHOvxiwrVh9Cod6F1GOt/NvAjP7sRrw4DDii7lOK8bEMQNXJJ9qMKxM8geHcf2oM1tCfnoPV9l+diG8/RDLSnxyHI2eIxucFt/aG/cSn6G/EtfyMctH+nMddmKpVKpVKpVCqVSqVSqdeAPoecROH6+yyCQbMRSLkc5QZ7M4IANd8zllItdiKCB+9CsG0ZAiBRefVu5EZqQwDlrwgc3YagQRcK2ZyL4MJLblMUPai6/2o0hvXib51JyWO3CAG1alGQzRHAjCIKE1E+s9DxCJRENdhwbu2OoM0QAiXbIkASYG4ZCu/czNeHkONwExqLhLwfgb9B4DQKrHoIgcBB/34hpXpwMwI9ET58nn/GtyO09Tb/fM7j3YtcbTUEumYh6DaIQNQi3zPkcV7ufrRWzg/592pF5tX+vR2BvOp9rX7Hcr8zzi9EbrxBt2EWWjcDbmM8+xwlHDhyJEZfq33/q9vQTMmneLHnbBDlAXyIAlVP8/nnUC7LxylFPjZBAGwIuQI3Q1BvKQU0bug5j+fmoTUBWiMPUJykx1Pg8gcoFY970d7ZnKJRbl+EYzeh0PnhYbQjaSx+Ey7APrRvXvL357ptXZ6DcAT+Fe25NuSAvIeyL0ejOXsReKf7cAfa02vQHv+sv3k9+htwPoKVN6O/EU2+B7TGO9HflFQqlUqlUqlUKpVKpVKvMZ2PQEFUIu0FbvK1TRE8mIfcPXcAR6OCIN3IWQSl4MQFCB78wNcvQ4CrH4VQLvX12X7nC35uFgJMnQhuNFNAU7X4Rx0BiZnAL2iEfCCX1gQEmeqoAMLwfIFHIPdTwMKjKtf2oeQJnEMp9LCrvzmEHE87oTDSO/2dF1EF4T0QgBlAQOcjCLoNuP/H+PeXUGGFVvfzYP+MQhFR1TegzhX+zuU0ArKJvjdCZTuQiyvy0gUg6nKfIzx1AIG05T4Xrr6ATD0ewzY0Ly0UcNTmawEVwy3Y7Xct97sjJHg1Jcw7AG8TJVw5QlqnVfodYdR14C8U+NflMYl+n+Axa0ehwO2UyrXzETw7BhVoqRb5OMvHyz1nu1AA9F2e250810NofUao+d6UNTKXxlySR7qvkf/wxzTq22hN1j2GE9CarWoUWtsz3ccqAK+jPdHmMe7z2K12G1vQnpqH9tgatOdOQnvwKLQnu9EeXYOgczPaw6A93eMxPAqt8evQGm9DfxNAfyN60d+MN6I1+mdSqVQqlUqlUqlUKpVKvSYVSf1fRmDl4wjkvBeFo3ajiqggUNKOAM63EHzZG4GEl3xPFBI4lFLMoQcVE6ijENlB5Npa6Gcf8D1dyDHWheBNFX5E+O8eCFIEUHoROAVVc61qd0pYbR9yIn6ycv39KGyy39dvArbwtW0p1VtXUvL+7YzcZEPu5yf9TDjEnkLOwuMooGYflF8tCkvshiBNDfhvt6sO/AnBoQHf34MAU1TPvcb3/Z1G599j/lYUhghHWBTsWE6pVBzhos0IGlUdfzUfr0VzXK3EvArNU2vlfLvv7fWz8Z4e3x/VnAM4vkLJOdhKAW6RQ7DPfan2LVyUV3ueHkPwrcdjNOAxO8f33YtAa81jvBulyMevPRdRWfpXnqtpbvcTnstdEEQd8lx/DOl4SjXpBynVpN+LqgD3USozV6HeJ9AcR16/R4D/pFFvQWshxiTg+p40hgEHoK1Rch12eTwe9BwtpDgi9/f7voLmKQqrHOpxmOXvv+Rn93YfI6S33eOBx74b/U14L5rjjyNAOB+tv7eSSqVSqVQqlUqlUqlU6jWnkQg8dKD/4H+Tz/8BOYeeQdCrBcGuOxA4+KXvm4Egwe4onPCvfu5x4D8QfDgMQZYOBD8mIXB0KoIsNyIX0wAlDLUNgY0BGsHHcH0GhY2upbiuzqAxD9kI5PqLfIGtyK30Tl/fAPgZgilDCGYc6mujEXyK/G7jfG47SsjvHASadkLQqe4+boGKVdQRaPkEjUVCTkAgZw7wc/d1NnJohcuv2WNxh/s/HP49RMk/2IYA1PN+Vw+CupHTrx3Ncauvh3NvfdBvzbB/bWj+1nd+OAwMV2DN1wIkVZ2IPW7D85TquvMpodDDIeAgAk2taC2GO/Ayj/mAx3COv3sijUU+PuE5qHtONqcU8njBc7cbxdk31XO8see8x327mhKm+wO3eQi5PH9OCQH+d7TGohDKHOQGjOugNXoGxY26Fq3lz/BqVcOAB9B+WUPZKwN+/ia/61Qf34/yI3agPXiY+/wfaI8uRXt2GYKS4SAFAc829D8FPulx/ygCrkvR3wjQ34zlfnZ45e1UKpVKpVKpVCqVSqVS/8v6EHLP3QO8B8GHU1AOr6hKG06lcxC8OR+BkoUo3Hcxcg+NQjCnGcGPduQwuwflb+tALqiJCIrc4nOr/TNywLVQqtDWaAz/HfK3zqUxn1poZ5SrrI0CZc6lhCyC4M3Zbuf68gVui0BTALTrUG7DEQgqRQjtJJQDbisEWIYQyNkLORQXUXKn7UAjfPoWpUjIoQje1VC+ukXIKfY7BMZeQBB2AOWRq4KxAFhT/Uyr56OOgE641bp83O421d23KvBrpxTG6Kz8W+t/ayrHnev511F5XyulenPd/9rdhgg1XoEgUt1tbqNUP672Lfp6vcfgGY9JP8oB2Ovnf+0xnOcxjb4cRCOE3cnHkQ9xD+SyCwj3GHIFbl1pwyoEtkYgaHwdBWDehfYRaA39mpLXrxmttWpev03RmoyiIGvQvH6UV2tzlDszithU90HNbWiiFFp51v2O8b/Fv9+B9t5atBfvdZ/a0V5tRnt3FNpfS1Ao7wL0t+DPaN7OcbsCFL6C/hacjPb15n733MqYpFKpVCqVSqVSqVQqlfpf1k4ICkTBiy0ReFuJQFZU+Pyez60CPoWARuQcextyDD2NgMlqFOrbg3K3HYlAyWEI8ryCAMlKFHIZYHCAAgPDkRaFJgJ8/ADBkpUUR9t9CPJUnVW4T+MplW6bUOXSLSr3bIXAUjVf4EG+NgI5oJZRcr1929e+RikMMttjtTkw2e9Z5HsOpOTCuwRVn13lfp1CCW99AjnBBj2WUfgiiqR0UkBY/IxvTfFzL6K566MAxX4E2aJ/NQScVnvsAmIFFKz+i+d7Efzp9Pu7KYVUapVnw004SIGn7ZVvRfjxWo9pPP9i5Rsv+vkpw/oYfZ5IKVoS566lVBH+PSUU+zoE7QKM7ouq4kbuw4M8R4sq39rcczmbUrF3X8/5QRR34DLk3nyDr32Lxrx+N9AYArw5mv/llIrI4xFsHq5voDXd7ntX+n1H0AgAowhI5Gpc5b7djfbQEwiyLkR7rpVSMflIlEuyB4UGt6K9+7TH8m2UnJxvRXt+ldvyXUql8C/5XDf62wHadx3ob0sqlUqlUqlUKpVKpVKp14h+iqDJlgi8vIgcbRtQQvtagO2BQ1A45QvIXTQfOYgWItD0Bkqo74+Rq6oJQZtDEKTZF4Gfa3xfVC/t978llNx01bDHdcPavQly5E2nQKwXkWNquDtwSxTGGa6/FSjssVoFeA/3e8DfvpuS++wjCJDUEHS5Gjm5tgMepjjafoEqyd5Byb13kMc4imacRmMBisMpRUL+gFxXA8hd2e3xi5DYW/zzUff3GQq4DPdk5NwLx1+E+Ibjq5qrL3LJDfhfAL2AruE0q8Kmvso74p565R3D3zPkc+1uQw+NjsAIyW4Z1pen/I5HfXwrJeR5ucfmQr97IXLaRZ7Bw2ksxHKqv9uJCoIcSMlFeJfn7NhKGx7x3G4KXEXJR3k/BWx9DK2RXn/nUeQkDH0QrbEVFDfgOAooC1VdfgFPn0euuk2G3VuF4TEvq9H6if0zD+2pDgRHa2jPDaI92Ol+voT2aIQGvwHt4YUej/ke8xfQnv8B+hsQDt1R6G/Eo/7mY+7b42i9p1KpVCqVSqVSqVQqlXoNaQPk9ulCef1GIghzDAotfQj9B/9oFO5XQ04qkBOoCbnXlqPCF23IQbU1JRfb3Qg8XI9CfZeh/GiDKGfZagQ+FlBy7UUuuWr10z9SCi8M1x682h14F7DfsPveicKYl/q+VuQW29HXRyCH1JzK9SsQFBmJnHsBEmchx9YmCGj2UZyPWyCAMoigyQ88Tn1u2zEIFA55HP9AKRISlX6fRYCzRgFg0/yO+RS336DHfNDjHyCrGwGoKPQRhSOqob5dFGdfN42QLwDfQOV85A6MnIzR5+o7wjEYYc7dFCDY6zZFAZdm5Eqs9mE+glnRxycpALSGXGoBCv9CKfJxNgKHQyiM+2eUStK/9xw0+xu3okIWl1X6dq3n8uuUis/NCCCORGtgHI15/Y6iuE93RGspri9FIPddNGo/ty9C1VejtbsH69fW7ls1HH6Qxr0S4Hg12lODbusytOeu95zcjYqf1PzeF9yOY9EePgPt6af97Yt9727ob0ATgt5PIND3HKoA/Eu/fxb6m5JKpVKpVCqVSqVSqVTqNaKNEGxajCBAwLUfI9jwG/Qf81cgcNAMnI7+o39n5OhajgDIjQik7IygQwsK07wKQYmZ/r0D5RTrQU6nTr+3221Y6nv6aASALZRcZ31+9k+sHwiORdAmimFU3YGbDbvvj5Scbe0IDEWl4NEo71k1X+DJyP30cUoBjrUIRI1FYaerff5+BIUmIIiyCoG/cT5uQeAlIN7fKbDrdoqzK5x/z1XGK3LtdVGg1suU3HAtlb5HDr8eGp156/sXFZOrELBOqXAbECoqBgcUrP8/vDNgVeQRDOdhCyXX4wKfb3Kfotpwi58J4BdVm5d4jKLIRxQKmYeKcTT7veM85qt8PMFzcp/vb/Wc/pvncK3PP4wcoKNQkZxqXr8/UfL6fQK4mRKyuwitqbEUbYYA5FwaXX6nDrsvtI3fMYMCb1d4LKoAsJ8SUt3qsWz2eD2P5vvPaD9djfbgarQPb/P7lqH8gz0IQo5Ae3oVpeL16f7+XehvwQbAbz32R7jN26H5WoKg6kbr6VcqlUqlUqlUKpVKpVKp/5+1KQIA1yKY8SPkLjseQZhbUAjjCORiGgS+iP7jfw6CCl/3M5HfrB3BhFYUGvgZP3coghORz67Zv0eRkCEE6AJaDXearQM+4HaPAg5G8KcKBGeh4grrA4J7ILAX+QDbkAOr6g4cjcJz5yOw0el7PufrWyFAEoDoWRRKOgq5plZSIN2X/e7IE/gCyjd3tfu1BjkjA+wt8LcjTPhSinsuINcMj+ta399PKRjS6nfWENCJMNxVFKddQLyq0y8q2wbcC+AaIDCA35B/r1YOrh5XgVQ40uL98b0AuuFMXO021hD0rVGKiPS5b/3u61r3cToFjoaL8RK/r9Nj+DIlZPgESoXcq4F9PBdR6Xk/YG9KAZqVCNSNAr6JQqwDoN5AWYOfQ2ujs/Ku02gs9rEvr3b53Yby5g3Xtgg0P08Bfi3IIfo9SoGarWjMAxh7pR8BuigWcq+/twzttS5K2PSh7tNn0B5tQ3s2KkRfjFyUX/cYz0F7/ot+7s/ob8IVHuMm5P6bhmDgaJTfsJnG4jupVCqVSqVSqVQqlUql/hf0ZpQH7HAfj0bQYSnKS/ZW//4ockP9GoGXAxE0WI5C/y5FACJynrX63nYEW5YARyNQEaDsNgQ6Hvdx5Pxb5ndHXrVqyOP6nFIgOPJtiqNpOBDcftj9VXdg5KqbjcBPuAM3RCB0NqVi7mQE9gC+4HEJF9xdyC31GUoBizUoR92nUE65CHc93mPWh8DS2chJOIQg398pocBRhXa6n+2lwKoZ/jmPkv+vh+Ksi75FOO7/m0uvmscv7guQuK7yvvh9gAKi+v8/vD9Cj8MJt4JG12K1T89X+t/rMQgIeD9aWzXgbx6PIbRW/+Dv9Husj/OzkT/xUwhqr/G5x4HPeg7vouSffBSBL9DcT6bkMJyNAOObfT1cfrMpYHM263f5bYeA30xKoZsWVOTkuxTgN1xjaAyJDwDYivZqL9pLK92nPgTpVlHCz4/2uL2A9uiplDD3rT1ml6C9vRztxwPR3j/V4/so2qtvRWHUS93+AKCHob8tMTapVCqVSqVSqVQqlUql/he1LYIDX0bhidf6eAfgPaggwBr0H/pvQmBhJYJq96DQx5cRTPgOckJ1oiqiKxH4OhE5j85Gbq55wAMITP0DgZLlfkeAvypsqv7rQVDlSuSwWh8oGYkKb9xGCd0NIHg+rwaCe/veqjvwDp/H3ziGUmm2DxU8OAA5oX5KY77AvwDvQ4CnlZK372vIGRUuvMtQLsVeH1+O4N4QgjdP+venEGAZoIQHv+jjZZXxC8AYcK4NwZxqDr8eCqyr/qs6/SJXYPX3cPhVw3+rIcNVyPc/vT++P1B5rq3S3gB0y2l0Mr5YGcMBj0WMzTQEXIcQGLyUUqX4Eo9xt78/Hq2ZaZTCI+egwhV/oeTtm+s5HeE5fpTiXpyB1kKsu1g7w11+sXZCH0Ywejjwux25Wf+ndfw1BNVne+yG74eAqFG4ZnZl/K5He+wBtOcWoD3Yjfbkw2iPvs33zUd7eLbvvRk5Cben7Ps3ob8Fa9DfhvegvxWrEISd676vAj60nj6lUqlUKpVKpVKpVCqV+l/SZQgYhBPwEAQMlqGqtrcjR99ZCL7MR3DiIj/3ARSm2I1yhd2OwmMfQA6uZxCcOASBl4P8cxyCGmsQOFlFCdes01hpdg6wMSricAMlBHbIzz+J4EZU7a0qgOCtNALB2QgI7lC5dyzrd3GFO3AEcjcFjBpAhVK+j4pHnEtjvsCTgL14NXT6rX8fRCA1wFUPylEXYayPUFxuT/pnk58Nx1w/cnJFLr3IPxhuu2rY7v9U8Xd94C8AbL3y/PBr/5e9N4+2u6jS/j+EdMCoERGlUXGKDPLaCtoaWltppVEE0TSiGBQRBUERlFZAbTRRkLmZZQoEZDYQMgdCSEgYkgCZ53m6N7ljkjvPN/n98ey9qs655wZ0QcL7/vaz1ln3DN+halfVd6188uzaXUXn5sf4/fyeXRQ6C92h10VKX/mAeQAAIABJREFUB262vnhKa6v1dUtRDDaRXJVrEEj2dOPbELjy/f3+bDGvJVUXPt7GJt/X73obwzNsTD1GL9mY90Hz4zJ6nx+ujwM3IOicA78xyK1aCvh9Gq2xWSSg2I5A22PAj5DDbhmFANDHehtaQ7Wk/R6HU7jmzrCYzkEwc6q9H4v2+2xGa/mjpGI/fdHzoMza93vkVLzIvluB1iXoGdKJnimhUCgUCoVCoVAoFAqF3gTqi4oZrEUFEW6x709F0OIR+/xh+zwPpSBORumXixHQGIagSg1KjR2DHEVvIVUdfRoBn+koNbDazq9GoGIWAj/FAMlBx9Be+vBB5GZ6hpQ+6oUkJiOA+b4S/f4u2n/PYV07Ajk3AUdmx56A4EhvDq8hyIHWjsDHPFQV9ggEKj3VdQ4CK8Vpp5cigLWDVCSl0eLtRVc6LT4taE+21Xa+/y2zv1V2rxYUf08RbSZB1d5SdHN3X35cKfi3o8R3+bm7KjJSqk2NpOIkVUV9chC6Gs0PnyudFpsnLVaNqArzQrvPGgSqitOxTyft69doY/R/bMzm2XXbbWxOszEu5RCdQEoHBwG/G5GL1YFfhZ03BKXT5joIFX95Cjn2PP6VCMr9Dq27UhpGYRpwHtt60lzxNVaDoP10tAanWNwaUaGOJmvnV+zYl+weY6w/k+21v8WoLWvbwxavb9vnm9FaX4uga99e+hAKhUKhUCgUCoVCoVBoN2kJ2ntuf+R8Wof2n9sAfBnBiH9HIMqP7YMgVSfaL+wTCOTciUDHegSyFiI4sAGlBm5ATqExCPJMR842r+bbjEBE7krLAWA1Ahs3ozTOXVUY/RxyX71CqszahiDSIwjs5Of3RQDjCQQOcyB4CwkIltrjbTFpj7fBwDTksOq2mP0K+DqF+wWORymmeeGJ4Qg6eRrvWAStOhDEqsti1YWgUZO9vHCIg7BuCp1/7aSiKjmcc9BX/F0xtHPQtJOesG9nL+d2ZdfP75MXeMn3BHQQ6MVDGrP+eXqzp8/WWUy8mMoYG7duYCZKpa62dsxDKbvjKdzX7yQbm8V2XquN3WBe2x6Rn0DAbymFwG80Wgc5+NrXvnsYgTg/vh7ByBvROutN/VEq8I3Wv2p6AkCvquwxW2D32YjWWpW1bQVaiw/Y34esn4vQ2j0NreUO6+Mhdt170dp/Fs3rScDn0TPiWNI6X4+eJe+yYxftol+hUCgUCoVCoVAoFAqFdoOGIkDSH0GKKaR/+AOci2DMvShlcS5y2s1GKX53ImiyHKXf/hjBpm+hlNYWtMdgOwJvdQhENCH4sRyBl1nIebSDlMbpUMpBx5V27zK73k47dz2CEUOBQb30c18E+O5HqYxeZbXB+n8L8KXseAeCoxB8coi2jEIgeDKlq7weh6DIJJITb4W18dfWbz/+XgRjvLLwC8id1W5xmEFKj12UxWeTXbecBBG7LcYO2rxYRV7cw4FWN4UpuTuL3u/o5X2p33bSOyjsyl55+rG3qyX77M5I74v3bZPFscVi0IlSe6eT9vd70mLnFXsfsNi6a2+5xX4oaU/BJhujY+01it6rRB+J4PNSUup5BYLGp1II/L5ox85F83wHmnMrESQ7Fc3JUhqEnIsT0dz2ff/a0dyfitZaPhbu+mwhzatZds/l1oZGtPbq0FpsR2vTK05/y777ESqgstzudSda67PR82Eeehbca+eea+3+JBrHKda3/nbssF76GQqFQqFQKBQKhUKhUGg36iG0f9psBCeGIqg3EAGL5Qi+7Y1cae2owMVB9n4sKgTQgMDNxSgduBK5sq5BMOVSBCHutc8PIQgzgVT4o5ZUxbbYfVas/ZBbabjdz/d320GqPvwwAhQHlzj/QOQMm4BAk8OwauRc+j1yP4HgzrcoDQRvRZVjD0T7o60gAbiFFs+vWpwa7Nx1aL+520hVi9chaLWYBJeetVh12fe+t98au36dvToQ5HEQ1EaCaw5SHcDlQC537JWCeaXgX/5d8XHFv/UGAb1NXvm329rs7a2z3/L+rbHfahAE7LLYPEtK415iMVxL2nPvLxbrdSToOxb4Gsnl587IFcC1wHsR8LuFQuC3BQG/b5OA30A0t6eR0pfdoTkR+CVaK8V6H5qbD6KxdadqNxrnV1BV3u+juV6sYvelj30tqSDIBPv+IYuVp5dfap+vsTZXoDV0MZr/DWjNjLe+H4TWfDsC3HsjN+Ry9IwYiGDhMLvXLAQZHyrR7lAoFAqFQqFQKBQKhUJ7QEcjYDAW2Av94/4VBJR+BrwHAYKnkAPvL6gC7xjkcJqGXEstKMXwQwg6XESqcDvErvcQgjIrEMSpQfDDi2HUIgDRaG1yuNSJigwMfA39OQTtrTYKAYpGEmyqRHDiFuTsKk4jPhKBjRdJFWE7kBPrCVTgYD+UCnmy3cNdau12v9sQEHR34Ha7TjXab+4cVJ3VXYMbgftQ/JssDvMR2PKU6EXI/bUDpVrWkKrluuuvIzu/mQQp8wIgxfCvON23GPIVV5wt9doVQCxOM/aXn+PVgXeQXJ++N+B2Ekjrtj5vtGPLSOm5TRar+XZ8k8Xyvuz4bRbzc2wMPD24DjkAT7YxuxVBXW/TZhtjB34DUDGQUWhOdGTXn4lA+VEUqj9KK77ZjqkkAe4mtBZGoXTkQ3l1fRgV8vDKzDutHY0WoxpS8RNfYwvtPpVoDdYjeN5qfb7IzvkQWsMtaE1PRS6+0WjN34aeAU/Ztd6DnhH16JmxN3qGjLM29ebIDYVCoVAoFAqFQqFQKLQb9U3kADofQZFBKBW2BgGYo1G632wEGPazVwtKt+yP9jSrBb5j561EsOUZBFAaUEGDVgQuupAragdyazUi4LLa3vveejmA8uqwDo6aEICZgdIXz0FFN3pTH+AYUhrxJnqmET+FHGGfy87riwo9DEegssnOabLPw+33fggiPUYCgh0IutyGikhcS6E7cAFypj1CAlJbkGvsZdJ+gXNJ7rUqBAC9mvDW7L3vKecwzQFbKQBYDP96c//9o69iZ2DxPoA5APT2eZvdJemOzm1ZP9dbDHbY+7mkff1esdj5Ho41Ftv/RRCr2OX3NRub5WguOFAdZWP5TzZudyKQ5mPfjJyGd6N9BPPU30FoDk2y9rXSM333SrTGdlUc43AEm29Hc3y93d/j5tWe8xh7enUTWkvtaD09YL//0vr/A2vXby3Wm9Ga+BtauzUoRbnWPvdHQLwFrf132nVnoXl/NHpW1Fi/Povmsz9TTtpFP0OhUCgUCoVCoVAoFAq9wToTAYBP2+dvkBxEx9jn9WhvtSeQc+p6VGl1PgInH0H/yK9CoGAZStXsj1I670SOo2YEPmqQK26tHVeGoFUrAmcVCGC4c80Bx4is3UcgF9au4MgmBC3uQSDi05TWAFLRg5dIKbYO05aiNOKfkdKI9wN+YjHZQAJYW+2eVyAX2GCLWTEQvB34H1RV1dM+qxG8mkBKZ622Njn824Zgq6dLbyalenr1ZIdnzdk9Habme/7tyvn3erxKpRDnANDv79Cqm0IA6K7GUn1dTXJPrkdw2gFqBUpbnUihy28yAl632xg48CsHHkfA70jgcgS2fR/ADhvj0Qgy7490MErffRjBwOL03ZcRHD6N0um72P1+juboi2jOloLcz6H5eTaFkHtEFmN3UjZbDMpJ86IcrbW1aH7VoLXYjNbmnWit9rfjltn7Kovhh9Fan49cldejeT0aPRvWo/9IOIb0/PimtfFf0Xj+sJcYhEKhUCgUCoVCoVAoFHqDNQA5qH5jn89H0Gs2SuXrj6DERuRWOgBBibn225MoDfA3CAbMQEUZtiCwsBQBh9V23SsRqLgEgZ+Rdn4jqoTaRHJpFRcAOeU19mkgchnejFxNa0hAyd1+m62P96NU4c/R04010H4bSc804irkfrqVlEZ8KPAHlIrq4KkLwZcJwC+sXSMR9HQ450UhHrA4eSrxIgSifL/BbdYOB1PVpKIpdaS98xyEejEIh2venmLX3+54ldoTMG+TA1RvsxdNaSGBtZosrlstFg4BNyOAtogE9lYjOHc/An4eh3Ibgx+SKgOXkSBpNZrDQ21M+9sY32JjnqfvNlo7RqG54vtFuvZG7rgLrR2zra3uCnRguwY5A2+xdr2WNHfQnpR5jPM9FpuRI7LR2jzSvr/YYvFntCZXWQyWojW7xfo/Ha3p39j5T5KKejShZ0Ff9GzYZL/tbTGqR88S0FqfB7zjNfYpFAqFQqFQKBQKhUKh0Bug9yOH0+MkR99k5PKZgcDFYlQZ9CY7Zi1KA/S0wEPQP/S7gMOAu+z7gxAsmID2CWxAe4NtR8ChjlQNeANpzzeHQw7t3OFUh9xwLyP33XXIhXU08NbX0Nf3ob0Ir0Ppviuze+5ELqgKBCMfsT4dQ6rW6mnEV5DSiNvomUY8DEHFYxEknG999+NWIBflVShluBgIepXl3B24hJTa2kgCSZ7+604/d5B5lWPfy6449XZ3AsBSIDAfZ29jDgDdGeipvw5uHcRWoDnk6cANCD49Q0/g97jF2mGgA7gGG5tbbaw+h8DfU/RM391k174SzYE+SPvY50vQnJljbfN50YXm2ErSuhqC5uKrqT9KKf4JSlkehebFOrtm7pDN14wXR1mP1lYTmkvL7LxxFsepaG02obXagtbuYXaNS4CPWhxeRGt+LXoG3IieCYsRvJ6OUq0no2fIcov7BvSMCYVCoVAoFAqFQqFQKLQH9U/IAdQJfNG+G4gAxlNoQ/8jEFhahJw89yMQ8CAqXDAXgZg7UGGQKuQMGoYca2MQAKlCEKMOwYc1CFBMQZClE4EL3xMwh1RfRY6t21F653wEdxpIAM/TSCsRHJqG0isvRem4u3JWHYBchleSHFFbSfusdSAQtwBBu98DxwFvQ07KIaQ0Yi/CkKcRP4L2YLsQVVxeYzF2B9/LyHE1hUIguA5BFv+uHYFALwLSSqoS3EECgH5td9fljspiR97uhn+5Yy1vo0NLLwLiIMtBZ4313V1+ZRabdSTgV4ZA3RiLqUPUNov5ozYOvySl7/q+iV6E5iUby9NsbN9qY/17G/sFaC74HpKdaK4sQ0DtKjSXDqB3fRilyf4O7SU41dpSSUrfdoDo+/QtQHsL3o7m0deK4uuFQLZZm9qBp61/q9F6qENrsBKtydHW56FozVZZ7O6wPs5Fa/xBi9/96Bmw2Np5BHpGTLYY+xr7grVhPHrGhEKhUCgUCoVCoVAoFNpDeisCCuMR7NgEfAz9o/9hBAMOQyDPq67ug6BaG4IihyHwcAXwXvSP/mHAefb9MQhKzECAZBsCCXUIIGxB4KHNPrcj4ONQz1+vpj7AJ60fl1n7ZyDwUUMCYrmbcD1Kk3wCObPOBf4NQb1cA1Chj8sQMPHKqu7A6kQQZQmqPnu5HX8kAk0jre95GnE1cqz9FUGVqcg55umxFQhyLiBVwe1A4Kacwv3y6rLf8+q/3UWvHdnf3e3+y0FVcVvcDZhXA3agV0fhvoa+T6T/vsVitKBE/J6x+P7VYl1Fz/TdkQimfdLG7HIbwyU2pj7GHaSK1WPQXDgRzY1cb0WO1HOQ0/QJBCLXWV8cGjqUrEVz9DkEiS8DTkdzZ29eXXlsu9Da8b0A25EDb4t9rkNrbxtyQs6wOBxj/TsPrd1O5FC8wr4/DK31NrT290HPgnI7/lCLrTsgD0fPku+hZ8skXptDNxQKhUKhUCgUCoVCodAboJfRnnW+/90VCBRca5/PQsBpOfBulNL3AgJgpyCAthw5nipQauE0lKb4PAJX/40gw2g7fpm95iFn0igSsFmLUhS9AEgOqu4DrkFA7RTgM+zaYdWb3oVgxgWoAuwEBNrKEGhyx5/vQZe7CUcgF9hg0n5v/UnusL9Zv6pIoMddbMuRc/EaO/YG5M4qTiPeAMy0l6dsOtCrQLDUq+N22u/uYHMA6GmgHsO8TzmI293grxgCOjz1trsj0AGgA87tdpwX2NhosXBguN1i9SICfXn6bpvFeIrF/A9ofk8k7SPo8Wm3sZtPocuzv431QDT2lyIQNg3Njd5ce+V2rYnItfcL5GT9R+btAaigxrfsOlcD9xbF1AuBbEegz4HoKDRH5pLW33q0JhvRGt2MIORs69c4O/+q7PhTSHtTPo6eCSus/2dbO//XYnGFfe6LnjEv/wN9DoVCoVAoFAqFQqFQKPQ66BMIUhyH3HvLkbPnIZTW90sEDsba8b9AkOE05E4qR44oEBSoRvvlbUag4CQEYM5FoGGmHbMR7Tu2EsGDLQi2bSPBHwdDDjhW2nHb6ekQ7Lb71CFosRo5kaYgV9LNqALs6SjN+YOvEpe9LDZDgD+R3ISreHU34WiSm/A/EPC5xK7xsvUhLwJRZ9edikDRMwgi5mnEDQhirbN4+fme/ttIcr61kOBZXgDkja76+/eCwOI25U47L2jSbX3bbt850Ku0WGyiMH23BgG3aRbLaRbbOtJ8abUxeMXG5BLgK8gFd66N3RP2+3o719vmrr0aNMdm2DUuQ263T5L2BuxNH0Bz8PuowMZNdo2n0ZxdheZwnd0rn+fu8KuzPqwqiqvvm9iE5kWLHefpvs1o7VWjtdgI/NTucxJay5vRGq5Gaxr7vhyt+e/ZPbzIxxgbg1+gdfMgeoYsR8+U4+zcT7xKXEKhUCgUCoVCoVAoFAq9gRqE9i8rBy4C+iEX0DgEWQYiMHE3AhPftb/3on2/Nth5DvLOJ+3VdrW9vxjBh8cRWJiKoNajCPLMQ+6/4uIfDos6d9H+/YGjkDPrfLSH3whr/4vIobUJOceaKQSLnnbaaO1aj1JJpyPX1B0oxfFs4HiU2ugFQfze/wn8HLkJx/PqbsJlyBF1Hyq4cC+ChrPsPC+E4fBrEwI9ayymXuW3iwTHHAA6oHJAme+vVwz+9lQREP+bA8AcVObt9xg45MwdglsQhFtlMWrIrtGC5vMsi+0Ii/V9CAous7FoodCJ2GBjMB85Q29Dc+o45Bx17YPmwvHIJTsUOfxGobmzAK2datJ+lvmc9mItW63tS9FcHW9tvQo5VP8L+BSaZ73J51g+pz12a5HrrxuttQbrf7W1tRmt3Rq75xa0Tn5OAocXoTX+tLUtfwbcbdc/xPo7Fj079kFrvsz6OGgX7Q+FQqFQKBQKhUKhUCi0GzQQpT3Wo4qfIOjRiSAECK51o33NQKCiEVUF/S4CM99ADrsOe/+UHXMCAi1XIng1A4GHlxCQmItcTS3WBgcmedGKtte70wh0OsQ5G4G+Yoiznr8f4oxDoORKFMfBwHcQKPojckjNQI6salLhi9xNuMGutxDtRbeGlGbq8MydYA7HHAR1oXjlrrUcehb/3VMuQH/llYk7rO3el06Sm60+i5VDwEqLzVIbr6UWu2LXXiuCXKtIrr0/AT+2sfkvG6srKA2Pt/L3w+Pb0Zz6CSrW8TEExl5vuRvUY+lt8ni1ojXWgByozSjVtxlBvxa0RpvQmv0Git0P7H0XWuPvtOuOt/v+BMVgsH2+wI79uX3+qLWhClUFDoVCoVAoFAqFQqFQKLSHdDhy6ZyN/kG/yt6XA18nuX3KUbXSMuDb9v1LwP+Q9qtzJ9taBD5WIWBwDoIPf0Sw4TEEHx5GQGUiAgWdpOq2DtyKoZEXuvAiB/UIzlRY21Yjd9cryP31NCpA8CDwAErvvBa5ky5EaZinoPTPT6PKrLtyW7kORmmcp6PU4htRqvEU5JZcTWEaZ773XnEa50oEZqbaaxqCT3Ptt81ZfBw8tVlMt5EcgL4fngO/4n0UPUX4zQD/8vHMIaVXgvbvHGZtJ0HAPJ6d9t1mi9Vci900lEo9zWLr6eN19J4+Xk/p9PGbSOnjx6AU3lfTADSXjrJzBqO5dgGae9egufhXNC8nIfg2y9q7zNpcZm3aSiqa43C3VDEXj5c7cD0+E+39Q3aNx9BaHIbm0U/svJX23VqUBj3C2jQTrf+XrT3ftrZdip4N30Ew9iQbi7PR+v+JvS9Dz5pQKBQKhUKhUCgUCoVCe0BVpIIfIBjRgaqYApyJYInv93Wz/f4fCII1o3TWtyMX1Brk9mlBUONye3+6/R1u5zyFQMzTFLrocgiUA446BFSOQEDlRARUzkVA5XIEVO6xPoyz+89EAGMp2pOsDAGLrQgqNVs78gIUxbDKi2m02PHb7Pwya/Myu/4stGfaJJQK+YD193q0R9zFwK9QYYnLgVvs98cRoJll1yoj7d9WynHWRHL+5QCw+Ph8T7iuou/3NADM2+Lx9THP295CKgLi/a23GJRyZPo+kuU23rMsto9brG+12P8BFb64GIHp64E7bczG2Bg+b+cvsXHZSEppdUeg77dYvF9lMbBuJVXh3YogWRkqoLEMpc3OsvtOsHaMsHZdae08D835b6I18Am0JrYX3S+Hv7l7cYq19yn7PJzCtXk58KS9H4jWcg1a29PsnIPR2u9AzwLQs6ELPStAVbQ7UGVr13UIEIZCoVAoFAqFQqFQKBTaA/os+of5f6I0wCpgJHKivRsV8piIUhs/gNxR81E11R8gkLEBAcPtdq3jEaSZgfZQawR+hMDCLfZ3JIIUI0nOvxUIlJQqVrH1Der/rnQAAiyDEHD5NgIwv0JA5noUhweQU2wSgiyzSNVW1yDQU4n60IBAigOaYhdXngrrFX0b7dxtCMj4q5YEABsQFOvNHVa8596eBIA5rCrVTodmbdZ/B4Bbrc95DDwujaTiMfmeh6Xi2p5ddyua82U2Vl6dehZyEE5Ce+c9gFye16OiIb9Gc2EImhtHo7lyILtfNRT20WPYhtaUOwF9zf0NrcGb7e+PUPz+gtZsPSpcU4HiPgilN29Ga/4G9DxYjYCgVzlehJ4ZU+1e1Sj1+T/tWp99owIQCoVCoVAoFAqFQqFQ6NX1eZIzaRCq9Dke/aP9BjvmHgQargT2Q8CkHvg/qLhCHXAGclg1AN9C8GE7cgY1oTTKVpT624rSEFtRymY9gjP1pErAxdVPZ/3/4DUPAZWlJIC4luQ+24KAlcOvOou3A7AWBH7cRemuujcL+NsVCPT2tlsf3HHZaH1012ONxWCLxWSjxWgNcv35foAO8v5ff3nKtK+TZrTu8jU1E621URSuwd+itXmmxXcFSolvQGv5h3atu9Bar7eY74eeBTXIqQhKla5Az4690bOk1q7774RCoVAoFAqFQqFQKBTao/oCCQAeTSEAvMmOGUEhANxEAoDDEST4IQkAnoJgQh29A0CHETPtnF0BwA7kxvp/+fUUKiAxA+2v+DIqArLYYrkaVVrdhNxYlchlVQwCW0hpzZ7++2YEgLlbzdOAPV22hQT+3P1XbX3ebDFYZzFZgdxnCy1msy2G01FK654e1zf65cVOcgDoqdLFAPBx/j4AeIZ9vysAeA9SAMBQKBQKhUKhUCgUCoXepBqE/tF+LErdrUbOvOIU4Pko3W81clfdgPYO24zSAwchUFOB0gfrEYD5C4UpwDfZ30cpnQLsBR7eDCnAB6K0zqNRmucQlPb5a5QGej1KC30A9WcSSht1J1+eAlxF6RTgXaWq5inAvu9gcQqw72Xo191VCnCplNs9Df5K9T9PAW6icA/A4hRgj8vrmQI818Zwio3pI/SeAnwqhSnA72H3q7cU4FZenxTgo1Gaf54CPB89Cz6AngeRAhwKhUKhUCgUCoVCodCbWFVog37X/QiS/Jt93lURkA9QWASkBkGUjyKw8CS9FwHxYgNTKCwC4oCmGGLVI8DyCQRcvokAzHloP74rEZwZgWDNBARvZiFH2DIEQ8oQyMirqraWuF8OjryQRkvWVi8CstGuvcTu9bzdd4y1405r1x+tnf8NDLW43GrxGEUqArIcFbB4tSIg7pTM9wAsdbyn1f7fUgSkuICJOwHzIiB1vHoRkDIbl1kUFgG5xWL/e1IRkD/ZGN3FrouAbCIVAXGXaguvrYCMFwFxN6MXAVlOKgIy0+47nsIiIFdYO3+G5vxJaA18HK2Jbdn98iIgnfQsAtLKP1YE5FlSEZBjiCIgoVAoFAqFQqFQKBQK/V+lwxAkOAf4KbAKOAu5hk5C/2j/DoJSlyJo8W3k6HkZ+B2p0u4I4Am0H9tQYCWCNz9BgGoYgguPIZjwMIIUExHQcidgjZ3XTun94vICEZ66XGFtW4mAysvWpqcQVHkA+CsCKtcgoHIBAiqDEdQ4CgGVAa8hbh8EvoTgyW8RDHkUQZY5yB1VYf1yV2OeptmKYNBma/PLqNLqM/b3ReREW2nHeHwc7LWRIKBXAW4nQagcAuVAMAdsexIAentygOfw19u8wz7nALChKJ6dFoctFqu5aD5OQ060qRbblXZMncU+Ty/3eNbZmK22MZyC3H832hifDnwRQbBX035oLn0Kza2T0Vz7JZp716C5eD/wIJqjk9GcfQXN4VVoTlegOV7Prl2eO7N41ZCcf/VojXWiNdeM1mALAtMNaI02WpyGoTU8Gq3pWRbT/0Gp6RXomVCGngnl9rkCPTM2A2db+39i78uAw19D3EKhUCgUCoVCoVAoFAq9QfoIAn31yL0H8HMEDH5hnwcj4PAT+zwBAYN3otTYLuTK+wGCE99A8K0JVRduAa6yzzMQhHgZwYe5CMq0WhscZuWuqrbXu9PAvsAR1r5zEPi4A0HMGSi1cT1KZWwkQZfccdaM0lI3ouITLwLj0L5oVyB31H8hQPIj5DZ72K6/CoGa1qyfHQhEbSAVs1iK3FiVdj+HYy0kCNhEAoSdJEjkx3Zl798M8K/Y6Zf3v40E6DpJKdAO77wPzRaTNcilt9D+brBjO7J7tFqsV1rsH0bw6yyUxjvYxupKBL3G2VgupdBFV8qR2YjmyHobr+nI1Xk7mlNno/T6w4F+vP5qzfrZlbWpnrQf5Fy01l6yfvgavMqOOQHNoacQxOtAa/kbds3vorXeiByKoGdBN4od6FnRiZ4doGe+3seYAAAgAElEQVRJPXIZf+T17nQoFAqFQqFQKBQKhUKhv0+DSCmtlwD7oJTEsQhqHIIAwt3I5fNd5C4aATyNgMuvEYzZggBArb2/CoGXixBweBzBkmkISDyKIMJc5DpyV1MO2hwE9ab9gU8jl9UFds8RCFTMpBDi9JZW6xBnHT0hzlAEikpBnHcBxyF4dBsCo/Mtlg0UuvZaLEbLrP/3obTTEchtNRu5qVqyGDRY21chZ9oWEgTsIsGxxix2bfbKU0JL7bm3J0BgqX353P3n74vb7w7ARhLIbLJYrLHYbCqKQYuNwSySk+0u4F6UzrrMxqKFQjdhg503H82f22xsj0PzzLUvmgvHI8A3DMHjUWjuFMPjUunKDo83UQiPRyAQeT6Ca0cV3btYOejMnZ7daE3Ns/ePWv+mWrsetzZchNboVSQH7s/tfaX9vgE5FO8lPQMq0DNhLnpGrLP2z0Zr5GJSyvSgXbQ/FAqFQqFQKBQKhUKh0BusI1HK3peB9yIwshClJe6FgFo92hcNBCU6gO+hSp/lqEotwAsILOxr11yM3EStKL24EQG5auSYa0aOLAeHvn9bEz33hNuJQE9vaZyeVutpnKtQKuXTyO11I4Kbp/Ha0jj7AJ+0fl5Gcu2tRoDEAVXu2ltv93wCpXeei9I/v2L3fgSlllaQXFtddu4qBAUn2t/5dh8HXvWkyreVdv+dFjOHY15N1/el87YVF93YU/CvFPjLYVXeZgdzDgC3ZTFrtRisI1WjdiBag4DX1CyWqyzG3dn5W5AD9WEbm6/YWJ1rYzfaxnI9Pd2EbXaf1SQ34WVobn0CzZ1d6YNoDubp44/QM328jl2nj3vacx5X36/SKwG3kEDeSvt+I1qDMy22P7NrnoQKeWxGa7garWnQWi5Ha/57dg/fF3SMjcEv0DPjIfQMWY6eKcfZuZ94lbiEQqFQKBQKhUKhUCgUeoP0MnIs9bXPVyBI8L/2+WwED1agCp+PIyiwCDgFOYOWIfdQBXINTkMuoOcQTPhvBBpGIaCyjFRttd6+77bz1yC4Ubx/3U7kjLoKQcmTkevvgH+gzwegKqe/QA4/r3JcjhxSDha7SWmmS61f96B9zwajQgkA/RHk+D3aW20BSnv0PQw7EYxZbve6FvgDqqY6BUEsB3qtFqNZyBG2zOLh++FVIIBTS3L3eREQd9LlDkEHgLkTsdiFt6ccgLnzztvelcXd215vfey039w1V0Ha93C7xWqmvTaQgGGbHf+0xfwPaA++iTYm20hj3m5jNw9Vsv29jW1/G+tD0NhfiubjNDQ3enMTlqO5NQHNtQsQbPxH5+1n0Lr7pfXhvqLY+j6K25H7r8LaNMri6NWpl6F5Nhqtzf9Ga/V5tHanITdfBVpzy+34U9DafwE9C96Nng2V6FkBenY0A3+2z32R6/Llf6DPoVAoFAqFQqFQKBQKhV4HvRWBkPHI2bMJFQaZg1xJVcChKA22HP3jvx8CYW3Af9rxHQgevg/Bjz+iCr1eMdj3/luBgMsaUhXeLQjYtNvndno6/Ha+hr7sjRyNpyNH1iMIQq5G0Ch37bXb/dchMPEEqlR6DnC0xSXXAOBEVCl1LNprroZC11qtfT/WjjsRuZ4uRDBpOYItDuSqEOj7q72eIQEbB6LzEVDcQnLJVaKxcNDXQHK45QDQ007dRdhNTyfgnnIA5m3xNno6tu/v53su1pEAZ7P1vSL7fbPFaH6J+E3N4jvLYu7AsdHGZKSN0ZElxriWBE87bMwXIXB2mR1fXDTmbWgOnYPchE+gOdabm7AWzdHn0Jy9DBUMOZJXdxNSFFt3CPpaakNrq4JUNGcNWoPL0JpsJFX2PQ+lM3eitXyFfX8YAqFtaO3vg1x+5Xb8oRZbd7l+DD1LTkPPlkn0XFOhUCgUCoVCoVAoFAqFdqP6on+kdwJfsO8Gon/sT0YQ4ggEEBYD70BVddegVOFfITdfNdoHbTSCARsROKxFEMTTfR9HDqVpCHzUIyecu/58Tzt3gDnc+BoCNbcjoLAAwZ/eXHtLEAC6G1Ur/iaqzNqbDkAOJ3eHLUP7lzkAarc+LkBOv9wdNgDBjjtRoYVaCtN3l6BU0V/a61GLn0PJOgSJxlgsykhAb53F3b9rJ+3V1o2Aj7vYcgDoBTM8jnlRld1dEGRHiXvmbfI2ejwcAHaR0n+7SdVtHW6WISC3jgQEyyyGYyymddm111jsL7RxeNjGJk8jrrUxvBMVuBmAoF6xy7OaBPM60VxZitbSlWgu7crp92E0Jy9FczR3EzaT3IRdJDfhAjQ3b7f2H18UY9/PchupEvQz1r81aD3UIUdgFVqTo63Pw9CarbLY3WHv56I1/qBd4370DFhs7TwCpf5Othi7M/aL1obxwD/tIg6hUCgUCoVCoVAoFAqFdoPej1xCjyFH1EfQP+b/F6UHP4j+sf8jtJfeCgQC3onSVFtRxc9LEKw4DBiOUiLfiyDBBAQfGlFqoads1iF3YD1ySDnIKi4G4g6s7Qj2zEYQ41pUjXQQKU1zV3ofAnU3oJTQlXZNB4htyC3lDshLEMjwwh99kFvqSgRWNpFSfT199ykEPj8HHAvcitxpDdlxKxBIuQoB0Rz4rbRrzyKBqSoEhypI7rXNJDC2lbRvYhOpEIZDIY9lcTXgPZEC7K98nL2NDi294m6H9c1B52aSi3ILgnfVJNA6y2K3kkIgOMpi/VeLvacHN9jY3Gpj9Tkbu6dsLP24dhvrZ5Ar7hiSO29f+1y8z6OndXehObbSrnsdAovv49XVn+QmvBaB9JfQGvBUeY9tvmYcnK63uDShteYp5eMsjlPR2mwCDkJzZjhaw13Wp49aHF5Ea34tek7ciJ4Ji9F/CExHz4zJ6BmyHM3tDegZEwqFQqFQKBQKhUKhUGgP6R1oX7BL7PP5CIrMQim1/ZEraCNy8bwbwYL59tuTyLH0G+Qkmm6vLQgKuCNqFQIRf0Zg5yL7O9LOb0RFFxz8dFHoWNsJfOs19mkgcCaCOtMQrGwgARIHSbMRhLsQAcTidMtD7LdR9EzfrbQY3YL2I+xPSpWeToJSnQhAjUf7v51hfS4nAb8VFquHkCPSXX6LEHTZbNfaZsdutc/VyBHnDkLfg64YALqTLk+53VMQMC/+kbfJHYDe5iZSQRN38NVkca0l7d+3w2Lke1O6O3C1xfQBi5sDwXIbgzPQPpDjbYw8NbjaxnCojWl/G+Nb6T2N+DE0Vz5KofoiqHghmmuzSeDWoV0DmqPPoIIgZ5BcdK+mU4pi6+vGnaCvWBsrrc+daK17yn69xWk8WqsPorU7HaUHj0ZruxKt9f7oedGE3I190bNhk/22Nwlce5GQ3yAXYXGqdCgUCoVCoVAoFAqFQqHdpB8iAPGv9vmbJNByjH1ej/7xPxqBjutQ8YEFCH582I6vQhBgGQIa/ZEL6k4EYpqRc64GuY7W2qucVNnX93fzvQA9xXInKrrgOgK5ooajwgXrSeDLHWSbEEC7B+1t1lsV0v2QK3A4Shn1AhsO1jx991xS9eD97f6jkcPJAVYtAlGXoz3cTraYFQO/21Fa8mQS4Kom7cdYkX032/q3A8G/1RarDgSTOkgVkB0oeQz8ng6s8v32chCYQ6Q30vVXvOdfXrnW07d9X0Pf/69UX1eT4N865IpzOFiB5tfE7Ls6i/XvgNvoCQQfs7E6EoGxF0mgtcPGeLSN+X5IB6Pq1r2lEb8M3IXm1jsorU8jUHaP3XNTFgMHoesRjLsdOAvNfdeILM5eAKTJYlBusapHgNPX2wS0Bq+0ez2E1mgbWrNr0Bruj9Z0NVrjyxH4vw/tbTjSYvKktfEb6JlRY69vZn1sQFA+FAqFQqFQKBQKhUKh0B7SSegf+efb388CX0IQow6lIPZDzp5GlAb4TgQPXkSgYKUd/130j/+VCBBMIVXX/S0CEmcgSHIBghwP2HXbEdjx/d+KqwB3kuCIO92K4cihu+hnX+vXlSj1sYye6buTkPNrUNF5J6F92pZYG3ba/RcheHKCHXcycgxuJjn5liPo9DWUxrmC5NKaj9ImHyG5+bYgePWK9bkVOagcAlbZe0/93UaqjuupsA4AHWA5oMxTb3MI+HoCwB0l/hbDvxwA5u3zNnsfHMZuJaUCb7AY7LA4zLUYdSLoNtFi6AD1EQSsFpDckCtsLI63sVlOcg5utjE8Gc37ExEcXmxj7mO/2L4/kVRFG7RehpLAWKk04itRcZy96V0OuW9Hc7wU5Pb9KT3OnaQ08NV2zwa0xnagfQO7gB9Yu35nv2+2dv0Nrd0atJZr7XN/tNZbEAB9J1qzsyxGR6PU4hq0xj5LeqZUkWBgKBQKhUKhUCgUCoVCoT2oQQiOjEMb+u+NAFQd8DPgQFIa4DMISoxADqB5CKgNQoBgNPAhBBp+jVInW5ETqh45jioRhFmIoMFiUuGMWvvOC4HkAPB04IOvoT+HosIFo+w+Dk48fXcmSrccTM+9A49CgGYmyWXWgQDMKAQaByDocwoJ+Pledsusz0chiDSRQpffSAR2/pZdfyNyVo0lpb/OB561z50Wq7LseC8Cspm0z5ynfnZRWA24GADmEC6HgL3Bu78H/L2a868UAMyr/3ZZnztIrkYHqjUIAO4gFQBx4PWsxczPH2sx3UhKof6bxX4khe7AiTZWR9nYLcva5EDwFBvz/YCz0X5867PYbkWQ7ArkJMzVH/gvNOdmojlYnEY8Cvhvdg2xXZ7mngPADruWO/C6rE2L7fNCtBYq0RqsR2uy1fr8azvnQ2gNt6A1PRWt8dFozd+GngFP2bXeg54R9eiZsTd6hoyxNh39GvoTCoVCoVAoFAqFQqFQaDfoIeSUmmXvh6F/+A9EDqAVaP++vRFYaUcg7iCUOjgB+AACENVon7GXUSpiFXA1AjD/Y8fca58fQtBhAinVcyuCD3nBCt8vrVj7Ad9H7rxX6Jm+uxjta3YupYsuHIRcURNJIK3b2jwNVWj1/dj6At9G4KcY+N2CoM9B9HT5LUSOsK9Z7DxFdx1ypv0FgZQdKEXzAeQ09HTWZ0nFURaR4M4aEiSrQzCojrR3Xpv1pYUEm7oo3GMxB3HFewIWOwNLwcDeUohLuf/ye3obvE2+f2E7mgdd1pe8fx3WZ4fEi0nFLp4lpU0vQWO+zj5XImh1ffZdg43FV21sFlLoDrwG+Gcb01voCQSfQHPBnX+HoArBz6L57/0tR3P7AgTRi/V+NDcfsv44KHZH5yvIZfg9UupxLi+S43HutFjWktKlJ1hbHrRY3YvW4KX2+RrkmKxEa/Zi60MDWtPjre8HITjYjuDe3gh2LkfPiIFozQy1e81Gz5SHSrQ7FAqFQqFQKBQKhUKh0G7WMOTw6Y8qmk5B8OCT9vtPkTNrhP0+z455CbgDpcA+g0DAlciZ1IEcVbcjIPExBA4eQZCjCkGIejuvFcFHT4NtoRACOmC6hp7puy3IiTURQZg8fTfXvsCpCE6sJFWcrUdppDejir+uHPg5XGpHxRIc+GH9nEBy89XaOcfaaxJypHUjuDQUua1WZMePQOCvwfr8AnJbtlvspyMw2okgYItdcxNpH7tuEnzaTtr/z+Gaf/b06lIQ0EHra3EDFsPC/H130fuu7K/v+ed78DmkdADnrj/vi/fN98drITn/tqL0WN8z8km0J2QXKfX1XlJ69HKL/VCLv6eST7Kx+k/kdPPjt9nYnmxj7UBwKQkIVtATCIJSYW9B68Whbyuae/fb8ftSWoOAP1i71lufPY24DK23qyiEsQ5SvZBKDVpTrdbverTmqizGj9j1DrdzbkeFdtrRGr7KzpuK1vgdCOpNsT71s9i2oGcEaJ/NDjtmX1LRkGG99DMUCoVCoVAoFAqFQqHQbtIi5Fx6F3IZrUeQbAOCIlWokukkBD6eRSl+9yIIcwjpH/53IbfServuQuQA2oBgzAYEQEbbdaejFM02tEdbEynlNXeIOeSoRimUN6J9xYrTd3P9ux03h7SnXBuqSPwwMIRCANPXvisF/G4kAb8DkfNpKQloucvvAJRWPA2Bl27k7PoVKpLwHGlfv3HIGTaPlB58F0oj7UaurDGk1N4XELhps9h6aqzHrBHBmFZ7301Ko3b410YCbd1Fr9xxWVwgpDv7WwoUFqf7ltpvMP/O2+IQrYNU+KPRfmux77x/nga80H6vs5h0WIzG2rh1WwzvIkHEeWg/uvGk/QKfA75uY7PEjmu1sRtsYzmUBBu7bMyvILn5jkRzoxQQHEIhEOyPUm4fQfvztZGcqq8AN6B11pv6W7tuQmugmrQuPL4+Hz1mHquNaK1VoTm1gsI1+bAduwit3dMQ9OtAa/tQu+69qFr2sxazScDnkXvwy3ath5DTcj/0THnWrhsKhUKhUCgUCoVCoVBoD6ovquy7FngaOeFADqV2BAcAPoIAyTxUBXeyvZYiqDAMOYRqkZNqDIIQ/RHUeRI5gxoQjFhF2v+vGgGf2QjW5cDIQdNOBGRK6cOooMFUBCMcaG1Ge5VdiFIYi/s9xNrpwK+NBPw+nh17Aj1dfmPsexAwedHi1WkxOs+uMZK0r98rKGX5FpJL7wXkXFxj114I/JUEwp609nUiR1eLxWi1nb/G/paR0pfdDeYg0PcGdBhYDO2Kgd1Oeo5Bb6Av/5uf29XLPXI3Yt6mJpLrs6qoT6uzv/V23CyLSQUCUW3W3/sQcNphsbmUBFW3W+x/gMBwl50zEhXdOM/GrtPG8gU0R0BjPYZCd+B40hwAjbcDQQd8FXZeMRAEpaX/Cq2jLVn8K5HL77f0vuflMHrfb7GONFeqSfsArkJrrwGt9UnW//4o/mOAr9ixL9k9xiDY5+t9f4tRG1p3oGdEO3LYgmL8NHqmXFei36FQKBQKhUKhUCgUCoX2kO5A4ONs+3wmcgqVARchx9rvUWpgGXLy9UX/2Hcn4BkI6vwJObLmICi30N57FeBuBES60R5nLQjObEWAZRvJqZY7AJehAhw/Ah5DTiN3Xm1D0OMq4NMl+tePBPx8z702BEeKgV/u8vPKqkuBy5EzrA8qBvISKaV1lvVtP7TfnEPF9QjkHI/2WPP93a5D+yputT4+hfaq8zTXR0lwbwZKge1EkLQTAaOtFtMqi0MdqTqsF1XxSrAeJ4dzeTpwMezrpBAKeoppMQzsLvptR9G5uSut1P3c+edjXUuq9lxnba60eGy1Pucx2GixcRD6iB3bjFJanyQVw7jMYu77RL5kY/I7UoXlChu7/WwsZ2XtfsnGvA8qfPFnes6PK+w3lwPBxSQgWEkCgv3oqc+gVPfZaE24E3UtApVnAm9Da8Hhn4PDDrQOaqyf2y0ew+3379rfH6J5Mwc5b6fa+7Fo7TYjSPpR69utaK2vRPPwKvQsGIcAZjl6VpxpffiJnXd7if6FQqFQKBQKhUKhUCgU2kP6GIIGJ6B9vx60z/+CChWsQzDhbcA+yFVUbb8/jSqYrkVQ4jQECpqAd9hx0xEEa0ZwY60dM9WOe5QEtZaSCoI4GCouPtFix92DUoFLOYz6IbddKeB3PYXAD0o7vHKXXz+UsrvA2tSG0ki/jaDQ+Ra7HQg43YEcUtfZZ4dOg1Hqpe/vdwcCf60kcDXfrvOCnbPD/paRYFS33a8DAZhOUppsBQm2OUzNi0S0kKoD5692CgFfXj3YK87mLsFOSoO/7l1c3+/v127P2uiOPk9v7sz67Hv2zbbPZUWxedHez7OYNltM/5J9brPYfzOL4VYbow+htNetdp1lNqZ9bIyft/O70By4gATwTkAwrDeHqOvjaO6VAoLfpzQQ7IfmzAg0530/wNz959DWC38szeL3N7TGpqI1txatwWa0JqejNfoOO24VSuNfaseOQs6/j5PW/T7A29EzYR16RvwLemY8iOblifb58BJ9CoVCoVAoFAqFQqFQKLSb9RaUWnmWfR6AoEQZqgI6AAGmGQgWDEVOoVMRACgD/gmBq3bgMFSVd6sdW4dSCDcCP0fg43IEB0bb5xcRWHBHW3n23kGRA4/9e+mHA79xFAK/RQi6HFF0vO/xVsrF5Xu8vQVVNF5KKlbxDIIbIAdZvq/fBOAo4AsUpp3eDPybHeuA7tdZzBpQpeTp1u4FCKS4y22ynbfAzm1FkNC/60Zwx9NHvfJvFQmiNpLcdrtKA3YnmTsGd5LgnEO/rux9R9F5r/X6jaTU6E5rtwNKT+P2Pnkf51nfK7L+P432nutE+88tsPs8i0CXux9vRxVuHTDOsDHJ07FfRHtHHoWKyuT7BX4F6UQ0B7y4ylK7ru8nWco9upi0R2SuI9DcXEQhEBxH70AQu06+/5/Pv61o7bQiCOl7ZrahtVaD1l4bWosb0dqss/ZtRWv3UIvZbWhtlyO4eSpa+0PRXH3Ofns7elaUWfsHWDvPRs+Wt/TSj1AoFAqFQqFQKBQKhUK7Se9BUOQB9A/3c5A76iLkyBuNoEAfVICgC/gqKgSyDO3JdjJKb70VOY/qgE8hoPAcgipdwI+R88iLV1QggFCLUmB3IKeXp7TmhSIceAy0dvcDTqcn8FuIHF3FwA8E7IpdfhOQw8o1AO19tsqOabRjjrHfD0GpmI3WpznIIdYPgZ+88MQJFhu/1hLgJLRPnRevuMRi7GmsQ0kFPW5DAKsegZduBL622vdrLT7rre/bLPbunHMAVWtx9/TfNvvs6cZePKTVrueAz12AuTPQnX3FTj8fI087brPr+fX9fm2kfQCbEZRykOhtrrM+tlnfPAW23r53+DfWvmuwWPm+h8Ps+G5UkOM3pGIq9yEH4BJr80oboxNszLptDC+3MT0VVYn2ysIjSXPwGDQ3fK/FVXZvB2AA/0XP/SNHA8fRU0eguevFO3IgeDoJCH6EQgdgXuClklRh+km7Xzlaa41o7TWjtdiF1uZz1r5PWew3I+fky9b+erTW90JrvwtB7T7o2TAaPSsuQs+OcywG91t78rToUCgUCoVCoVAoFAqFQntI/VGa5EYESj5m35+LwMaf0D/+70bOqCrgjwiYHIUgw2Y7ZiQCMZ+y77wIwr0I3ixCEKYeAcUWBDwa7dhmO24zyb2V7wNYSQJ+rXbutZRONXSX30KSE24FhS4/P+5a0l5wdSj18bP2+wB67uv3OwRkPoPcUA6I7kTVTy8l7e83GVVTfQQBrhqUQjqclPb6SwSjupCTbTYJcm20ODxh3821eFUicLMVAVUvJLGWtJeeO+u8fb4vXG9FOnKXnkM8d/91k6BsngbcRgJQvV3T96rz/R4bSHsR5q7FNfZ9hfVpq/XRAdZcEthrt9g4HJ1tseuyWF6Y9X+4xdyB4yM2Jk+T9h/8HZoLd2btm25j3M/GNN8v8DoS7BuEQFgdaY5cS6Hr70C0f96KrO95BeliHW7XWGjj4ECwkrQevGBJPck525zFa6HF9iY75j60BreiNekp8uVozbagNdwHrcEatMbnoTXvRVfuRuv9Mov9OdbmI9B4bUCVmHdVqTsUCoVCoVAoFAqFQqHQbtZeyBXViJw8/dA/+s9HaYTTEWAaAHwRgYe/2Llz7Lc/I2jwSwQBliDHXCfab8yrjo60a5cjMNOFgFstgiJrSY40h1V5yuO1KE2xlI6169dQ6PI7uei49yIXUxlp376HERQCAZDzkPPJfx+OIE5fBG0cCC5CTqn9kOupzdp9B0qNHE2CWmciANmGYNEvrH07UJXgayxe6xGIcuC3wL53CDjbrrEKAaBVdg9PPd1OSndtRtDW3Xdd9p275zwdt5lCZ6DveZc7zfz73PXnELCl6BpNpNTjelKBEoe3VSRnYoW12fvgEK8t++v79j1h15lPAoJ3Wcw6UTr1K3af8Qj81dk1rrAxqLR7jEaVdu/M+vZXG8uTSRWFK1Dhi75oDniau+8X+DM0Z0Bz6OHs9zJUDKS4EvXJCKh7sY9qNHePpbQORXM/r4zt6b/+WovGphZ43Pp4N1pr89CegI1oLf7Wzj8UrdVtqKjHZuSArLA4gty9nWjtD0DrfTp6Npxv1+6Lnh1NKO15r176EQqFQqFQKBQKhUKhUGgP6QJUdOLDqODBSpQaCIKBWxA0+ThKH5yNoMFoO/ZAVBCgDNgbwZp65CJcbec2ogqkXSjtthMBs3rkilqJYJY7u2opdKD5K9d+yJlV7PK7Fji46NgPI4jn4K4KFRI5JDvmK9ZvL6gwETmgAI5EjrFOBDnuRemNR5Cq0VYi59mBdq4XtDjVYuzpvUORG6zDfj/b+tyBIOA6e38zKW36Wbuepww/Z/316sIOwypJhUfKEfzyPQyr7XPu1iuu1Jvv4+fwzyFfEwmUdRYdU6rib3GF4DoEZ1vtHnXWxm4EoHz/P+/LHLuG75/ofX+WlM56MwkcX23vN6JqtJvt81UoPbcFAcnzUVVcL5wywcbsV2hedCPAdYSN8X3W9040B45E+gyCab5f5XMUArxD0ByrIoHE4Wgu5joYzdncHbgAuRL3Kzo2Xws+LrUkp6hD0+Vobf3Vjhts1/4hyUG6Bq3RerRm90ZreJ3FYxUCrkvQmj8TPQMq0TOhHwJ9z1nb/RnyosU4FAqFQqFQKBQKhUKh0JtERyEA4K66jyCwUg18DRiCnECn23c1KOXx7Qg8LEZVRBcgGPU0AlBfR8DlLuSQ6kCpgrXAJgQZqpCLqB6BFHcvNZD2dPP90Bx6nIOcUtWklN3JwCkl+nY42t/Q9/3bjPaLy+HgQLteAwk+nWq/7Y326Ssnub2G2G+DEWjZgVxrx9t1n7HrrEf7zQ2xtnYgJ9Vga08b8D/ILdZtcbiSVGn2fvt+jLW7Ee0H5991Z/d6kQQ/mxCQWkFKES3P+tdhMau1v16V1yv8ehpwV3a+Vyl2gOn3aLdjuoteDrFasnttz45tQKDJz3eXXzMJgr1Q1Efv8zjSfnb+3f2kCs1/tlh2W2wvJUGywWj8O2xMTrUxWp/d62Aby0/FRscAACAASURBVKWkfQK/aWN+GqnaczmaG+78G0IClw3Ibef7BYKchrcjcOb7AT5ATzfrXsB30Jz2lGJ3B55F4f5/DmVb7Z7uop2E1tRMO3cdWnO1aP10oDV5l43R19GafRqt9QVoTS+2cwagoik1dr3T7bghFqtqNHYONg+1+zsoDYVCoVAoFAqFQqFQKLSHdTgCW08j+DEOQZMvImhQD3zZjr0OAYebUBGEtfZ+I3L69UNuvArgn0mOr6eAGxCkmIRSM7cid1E9cn/VI4Die525w8udZrnbbCWlXX6gvcxGklIrN6I9/PJiBAPs/Hxfv9+TCi18DDn4HGI9jFI4+yBXVg2pCu2hyOn1vF1rDSrycKzduwt4FMGQxXbeowieeHrsj61PncAf0B5qrQhmtSMYNcfa8zcKgdjT9vclUjGQDfZdGcnR1kShI7Db7uHFNbyISD0CbMUv30PQ3zeU+L3errEtu55XzO0iOf6a7LsqkgNwA6n4h++B6H3zvj5qMZiDXGntFqNWO38oCSj+mJTmPMTO7bYx+KTFsQuN/bHI/bnGxvA54KM2tlPsvBqUNtsHzYWHSfB0Amkfyn7Wjny/wGsoLA7yHjQnN5JS1f9GcpvmOhitOy8mU6oC8BbSXJ5r/a61v09YXMehtdeA1uJT1qc6tFa3oLXbD63lDchduRat9ZvQuF1n7fqyXX+T/X6p3eNgu/Zy0n6ioVAoFAqFQqFQKBQKhd4E6ovAVj0ptQ+UUlmGgMunEJgbhP6hvw34tR23gAQKy1HaYxlypn0ewYqzSKnBzyG404BSM3egPcsaEFDZhsCGF7jooDDtsVj/jopBNJAg3OUUpk/2Qa6nfF+/u0kFQfqg/QsdyqxCKY8geHMfaV/C4cDbUIroLJI78IsI9C0hAayDKYRPg+ycbuQA873Yltr9O+z8O+yYB0lpvRMQtHLXoIOxZ+37VRa7dhsTB5hrSNDNK71uI8HVLpKLrA6Bvm32N385qC31vQO/BlKKr+8d6IVdHD42WZscoC2wNm8jFUPxlGfvoxf4GE8qDPKg/XaHxazDYrjM+vYbi3G3xXwQhRD2gyTAt8TG7oukOTLLxniAjbnvtXcfCej9iATnNtr93RV4EGm/wG4b43Oy30Fz9HIE2nZY/MaiOV2sPB2+gwRlfa34d4/btYba56fRmvNU37OsPZ9Ha7QMGIHW7pfQOC2we15s8R5n8atEoHKOnXe1HbcPGuN69CzpW6L9oVAoFAqFQqFQKBQKhfaw3o7+cb8KgaZ/RQ6hDwA/RW685+3Yz5JA0hDk5DoBwYhVdsxiBCV+jMBHBQIVJyL4cAoJ9Kyzc6eRUkw3kPZdywuB7ETVRY9DaZJeSGI5Sql9a1G/jqVwX79JaO8210AEmXz/tMeszyD4M43kVrvYvv80KnywA4GSzyCYNNO+ewm5Ai+xa24FTkIuQy/ycQyCTl4k5Sm7z3XIxdWBXFUtCEg9b228j5TemgOy5+1eFRZPj4nDp83IreV7/G1DsLfG7pHv1ZfDQId7W+3Y7STHYDH0y92aLXZ8hR3n6cebSHvvbbU2dlubK60Pz9MT/nWj/ew67Pdldo9L7bu5Frtu4EkEoTotxl8kFQn5vY2Fuw0vtrHyvRRftLH8LHLE7bCx/hTSxSjltRvNDXf+fRDNHa+UPJrCFOBBaO55EZUZCLblepu1bwWpgMtkNIf7U7gGPEW7hbRWWoCpNkbrSGD4W3a9r9s4VaA1+WMbm0V2/9V27glovvs+iXWkNfO8teunaJ3UoGfFBLT2K9GzJBQKhUKhUCgUCoVCodCbUDcjt9I/IVdeK6rOC3LJbUdg4mEEMn4GfBVBh8l23AwEF26x43+IYMGdqKpuGwIzZfb7MuT4WoLAge851mTHVpIquObVTz2ldBEq3OCORddA5PDK9/UbUnTMuSTX1Vrrj+sk0l5vyxAQATja2rgDOaCOBPYnFfxYjkDJsRQWoDiSVOTjt6ggiKeqfhXBqDq0x1wdgi+/sT6Os+OakLOym1Qh2N1t4+zYl1A6bj0Ck90I8q0mAaW1FmMHctXW1hqSS9ABkxfNcADoTsRa+87BnwNad/f5NX3vQ0+hzZ2Iq61t3SQHaaP1wfud9/Eu+3uPXWNl1u9LLGZ1wPfs71aL7SqL9QUWey8SciSFhViORZDO4dsEG9sjbax32NgfjXQiySm4DM0Z188QgHM36jkU6vsU7hf4CIWwEDSnf4XmuO/PmM9/T/eutveNpD05K9GaWolA33a05n6L4OR5yDXZjFyu29H6r0BrGLSmWyyG51k8HrJrbiOl1D+O5sAf0bPjbpQuHAqFQqFQKBQKhUKhUOhNpmMQVPFN/L+A4MxSBAHvQXuWvQXtVdaJUhQPQPBgIUrNrEFpjytQOuEABGK2IlfW1Xb8DAQKmkhFLhzquCNsNYIaXoQidwF20jPFcADaay3f128ohXDwYLQ/oBewGIf2egOlZV5M2t9vKqlAw5esbe4QOxzYF8GpLgRXjkeg9CW7/ySU3vlIdt5Hgfl2zjBrn6fw/pzkiPyLfX+F9aeaBP9uILnhPEU4d8vNs3i3or30PC10MQI6Xcgxts6O2UEqqlGenetOvjYE1KpJjkGvJpwf52mo5aSiJf79etJ+iC3Wlnpr2+zs3HnWh7FZ37pIBVG87yNI7sI/23e3khxv55FSiIdarLvs+gNtLLptbPazsdphbTkQAd/y7N772pi7w3Mlyb13KMklWk1yiYKcheNIc/hvFO5bWbxf4BZUCCbfLxA01/P0X0/Z9iIgDniXk2CxF0lxcDwDgbur0Vr0dTnA+roCeK/FdTxa0w1ojX/B7j8SPQNuROt3FHpGbLFjQEWEGtEzJRQKhUKhUCgUCoVCodCbSO9AMGszcqHNQel/+5Bg1I/s2McRUKhEe4sNR4BkAXIgHYb2TpuI3E/LkIuqE7gMOYuq7R63Ijhykd1jNAKE3fb9BgQp2imdBtwHuauWklJK70YQMtcPSRV7NwIXkvZhG2D98f3d7iEBmONJ6bQzEDzqg0BUu93vdARoRlgbV1p/TyEVxhgMnI2A1zrgXxAI7ERusVEkWOXpyufY+WtJoPGPJBdcBwI1HST49wSpinCF/TYLQbc2BHW8InIlAkf+ud3O2WS/NZEqAjfZcRvtGHdp+j5/TXbORgSD2kmVblfbbzsQXFpIqvg709pYQQKjT5BcjR3ZXwegf7LjHrDYNCA3Z4fFzqHqKAQCOxH4+4TFvsPGYjCpSMgpNma+/+AIG9MzSPPvehv7gWgudNv9j0caYOf5PLqbNI/6oDnn+0uutGvnep+d4+nSS62dfRB0y6v/dlmbahC8ayeldXv8fm3f/wWttWq09v5kMfkUWpurEQCdhdZuLZo/+6K1PdnG714EAEHPgm5U1Xgf9KyYg1y2m5FTMN9/MxQKhUKhUCgUCoVCodCbSEcjN9s2Ukri/Sj9cjkCBVUIvn0EAYaZaC+wCrQfWy2CeH2B6Qiw+F5iqxCM+iwCMdciWFKJYEozCWatQ4CmieQ2yyFgrV2jzdo1qKgvByIHWbMdNwnt6ec6FLn8PD31YhIUPBnBmm4EOd9n3//WrtdEKoByln3XiGDgARQW+dgf7S/XhVJOj7cYlKO909bb569b7OsRhPVquI8gYHORXWM4KVV2m1270WLdSQJA8+16nWiM6uz9QvveC6GsJKXiOoxbZ981W6wdNq0nuQDb7bdm+87P8ZTfLXbtrXavMrt3p7Vlpr0vs7Y6AO60vjQCr1gfPbX5bovBxXbco6Tqx6eSqtJ+3WK6Hu3XWG6fj0cuUU+X3p/CIiEH2Bg2Wr/OsjG+GI15E8nh9z5SleKNaM6A5tAlJCfpMyQnKWgOPmVxarb7H0ihjrZjfL/AGnq6//JqzQ6px9o116A11Wr97UBrrgUBv81ZvGagtbodralL0Rw4GI1RO3oWvBVBxInoWXAXejZgv29DY/lvhEKhUCgUCoVCoVAoFHpTawCCAzchGHAjggFvR46gZQjofQP4AXIHDUX/+F9o1xiOwMLVyMF3LoIUU1AxhlYEPRoQqKhDe9o1IwjjbrJ2BAxrEMDooBAA7kB7qRXru8g9tcP6UlyR9ATS3m3LKdy77fskGDaOtM/ZmaTqutchyHO09a8T7XnYx2LhRT4+bue1ITByKHKIeWrrcRaL1RaXJgRBT7N+jia5384jud5q0P5uXlhlKQJcWxBIayel0L5sv3WitNet9n4RaY8634uxjOS83ESCSJ0kd+UaO84Li3SSnISbSE60crvmNrvHOrtnp537gr0vJxXfGEuqXrzFfsv7uMT67m7In5IcgqPtu9Mshk0W09UW4+NIhURGIKdbmY3ND2ysvEjIUBvLW+zzBhvrPsgF6M5Pd/C9BzkxHXqeRtJJKLXW9wk8PvvNK29vtt+XIihXrO/b7zkA9PVQabFtt/eNCNo1IUBXh8asAaWMt6LU3Cl27LnWv6vRmh1u91yI5sVQtMZ/gNZ8g/XjLeiZUGExqUV7CG6mZ/pyKBQKhUKhUCgUCoVCoTeZriNBgA8ht98W4PNoP7NqBFNWIQjyLTt2DoIzNyIgcQxyrzUD70bwqRLtPTYCFUCoRlVIG5DjawoCFPcioLGFtE+ZV2ztohCGuLPqXXbdRgRtpgBHFfXtYuuPV2/N3YBn2W9dqJLr/vb9iQhqdCKAsq/9NsXa8YL170hShd1LUDVX32fuBuSm2mj9Ownt7ecg8DS7/mTgfPv+RuQua0egqQPtH7ceQZexdq0H7ZgxFut5dp96kjvtOVI68HMI7HharEPAGgToHEbVozFeY+93korAbLD3O+23NXZsPWkfu0V2TYd/8+ye29FYu9PQU2knk9x780hO0HYE7lqtzxUWg5F2jTPsmKcRgOpGKdWTbSyHkPZIvAJBrFaL0fsR6O62cXybjZ1XKj4Swb0XrB9T0Njvi5xvXQhSeoGY/dHc6UJzyd2DoLnmexJWkdyjrqOQU7ATzeF7SHPwUHoWv/HK0l6V2dOu77X+TSG5b89Ca22u/f4kWosvornbjNbqf6CxusGuO8fu/y0S/P2KXesQ4HN23yrS3qHD0TMkFAqFQqFQKBQKhUKh0JtUb0Ng4afAXqjIxzoEqLxIwJ/tWK9cW4YAQyVKY5yOAMRhyFX0gh3ThIBiLUq9vBJBoo1oH7FaBC3qSACpneT68iIK7RQWQ9iMHGO+p51XIs37NBylPrYC91HoULqA5Ip7wI4HOb686Md4BGP2oqcrrC+FRT72R9CpFcGqj1t8OlDhi/fYcZ3IHXiVnXtV9v7XFrc2tDedA75ZCA5diyDQ7+x4L4Jxi30/FoGfDQjsdKO0ze0Whxk2Hi32u0O/dRbL7fZ5k7U5h4JLSanZ7rBcYse6m3ABCSxutnu02D2fs/d1KCW7237fYG32qr63FPXN+3qNxWAWyTF4ssXqBYtdcTyvsli7C/I91q9OBKA/bmPVghx4+1NYJKSvjfVGktsTO26CHbeClIL+dgQt3e14Pkn7oTnYZvcbTppzoKIgfyTtmbjAYpgXv2m3c931t9LeL0Zrpw6tpVpU6XcDWk9XWaxrEbBrQmvzBbRWD0Pzdjpay1UWH3d8ftXaeCVyzpajissb0LNiL/TsaCvqUygUCoVCoVAoFAqFQqE3mb6MHFjTUTrp6fb9J0lQawiCN2cj11AdShkcgFJ5RyGXUCUqNHAZAhQ/Q/DhMTvnTBJImEMq5DEWpY7mlWe3IzDkDqjcBTgDAZpch5IccDUIIPXJfr/Yru/FJfpn580hucI+aN8PIQG0X9p3xUU+9iVVg70dgSNvwxV2bXczHk6hS+3h7P0rdp+vWcyfQSmurSgVuNva32H3aUPwsgOlfXYjsOTAaw2p4nEbGsNn7fdq66dX5J2PgF6X9W0Bcvd12v3nI+DUat+tJFWL7ULpofPtWvV2/2o79lk0J9qytqwm7QU43Np+t53/gB1zu32+2H7/ud1/lMWmlbSv4isoZbYLOf+G2PvJFnOP/6EkF+ZkG6s7SO7QfelZJAQ09i1oLgyx7z5IAoYvk1yp/UnFWuoorA7cB83JWmvf08hVl+toNLfzlPdu0hrwPfe22vW3kfbPXIrmsYP7M+2Yx+yeP0Nz4jK0RisR8HsCreEBaFzr0DPhbATCv4vmTysqqgJKD56Pnhnz7PhQKBQKhUKhUCgUCoVCb3L1QSmonSit9kAEYS5HLid3HB2BKoBWI6fUBgRM3o9cWe32/d3INbTSfn8LSjssR/u1XY2AhqdzvoRATgcCUJUIunQiCOIgxMHINVnbjyft/7cSQZy8X8OQg6wNVSDuZ78dSCoIsogENz5GcgJ6ZdgDSM66B+y6g62N1ajoxFEIyGwHPmN982IcB5D2qTsKQZ4O4EvIxdWIHFUtyDF3m8Xn23aN20kpnUtRSuwCBPrWW9uaEFTsRoUyGhC4mWixmYdg1Q67p/enwtroBSyW2H28ivBcBG3dweZtcNA6067hzr7Fdo+X7Z47rA0V1qZH7diHrM2zrQ9rrU/r7fqeMn6bxerbFpPbSK7Cf7fYLbZYdlhsjyLtr3gACTieYWOz3cbqKBu7ajQ/B9vYepGQ2Xa+V3zuRnPjcKQjLV7dyIHnhT36WTvbrH3DkFvOdTKpQvUSCvcJvIbC9F+f/53W580Wnw60Zl5Ca+gHFp+rrd9eBOUtaA2uRGvybrRG3Un5fvt9g31fjdb4EXbMSlTk489oHh5osehEz4wcsodCoVAoFAqFQqFQKBR6E6sPgi9D0H5eNQiIHGS/340qlNYigDPFvv8TcgbdhtxVNwB/QXDgVOBXyPG1DAGJ7yCYcToCGF6Rdi2CcF48Yy2CRV6N1h2A7gLsBC5EoLAbQZ98f78+KP2xxV7Xk4qCvA3tJ9eNYNOXsu/H2fevkJyAxUU+9rVYdKPUTpCryqu/9iMBpCutXfXWrwORO6sJAUcHpJ9BoGiOxawbpWE3WN+eRc6s6yxuw0iwpxOBv3rkyppvY/JXu87zJIffJATi2tEYbrJjZtp5O1Da64sIkHWi1FtPn91mv20kpat69eNN1v92EnjssnOft2O8KIW3s97a3kmq1DvU+nid9flZBPwaLCbdFqM5FrPPkADXJy22y4B/JlVY/piNhQPcftbWbjSH97Kx7LYY7UPPIiGgOfEKqWCMp70ea8d2oX0b/fu+aO61oPV0FYXA7OOkPREr0Zz2dHef712k6ssNpArO7WjNrCVVXu5AKbo7+P/Ye/MoP6sq3f9DGWPEiJjOD0SbWTEickEvQ9uKjQjS2IhG0RahEQRBFARBERokCALNqIDIKIEoERCQKQwJYQghCTOZIBOVqTJVJZUaUnNV7h/Ps9d5v0no31136Cu6n7W+q97hvGfYZ5+sxcOz99ZZi8Is82yzb7j/36CzehE6u522A8gv/ojO+uPo7AN80Gto9N58C+1/EoCJRCKRSCQSiUQikUi8TXAsIoECtyN12TxEuqxGSqgdfL0IFQm5HzgBKYJ6UD6wj1HCgWcgQmI0IvdORuGly/3+537+CEVJ9QIlP1sXIix6KGqoUEf1eJ5bVuY9CBWG6ERE0IUUgmIQUjD1otDHwyvfjXJ/qxCZAxsX+QAVf2hD5Mi+HvtV93mi7+dSqtB+hVKIY7jX1YgKhNRTQlNbUPjlt7zOk/1+EXAuIoGO9LtT3edF/hv5AS+0fW5ERM2riKyL0Nh2RBw96GdzKCRYva8jV9+TlArBzyCyrt/Pgozs8Df1FPJzjvt+0GO1e+w+z+VVzy1Cb3/hd5d5Lb+0LX9EIUH7bIPFKM/gqX53OCLA1lJCrett2ybberjn3+O9iCrMc71XJ3q8V4H3oSIXq73HUehjwyIhIB9Z5edBDoJI73h+HYV0rvP+tHv8q6mtUr0lIiaruS5D9drj56HAXIJ8JdSaj/jdeehMLUfn9mQ/H43O4Ay/X4XO6PcpRURORKHE/4iUgKtRzsDhvj7CfS5AJG7gOeA7JBKJRCKRSCQSiUQikXhbYDL6D/x/Qcqp1UitdjAiyxYjJduuiNj5V//tQiGEIxDpshQRLjciIqYH5Zu7CRVSWI1Im+ORmmwayuvWgYiI9Ugh9wYiSro8/qaqAbdV5j/EY3QjldQ5G6zvfPfXinLqBQ5FhFxX5ZtBlDDVKPIxiKIOHIsInUMohMz2wH6I3Fpo253r9lcDO3vsBaggxVJExHyYooI80O0vRArDNs+v33OOIhqz3T6UeFMpKsqJiGT6jW11U2XcB/zsQUSA9SDSZ5ltM85r6UEqsNfd/ikUjjvgZ+PdZikinzrdx5/9fN4GY4Wa8yY/+43n+DRFvTaVojycg0Jcx3nNP7QNDrVNHrWN+m2zUL/tZJsuRT68ABGrO1OqBZ/rvVnovdrPe7fEe3mI9zaKvPwZ7X21SMgfKeTdOch3Gj2/wMlecwcil6s4x++6Ue69IZV3bdQSgFH9N/IodiLSb77bjPYY96Cz1IzO1nTb5FrbfRLam23R2XzGdmpCZ/fvKVW4v+W/H0PnfTE6gwdT+2/Dl5AfVf/HQSKRSCQSiUQikUgkEom/cHwZqYSWojBGUKhkAwqfbERKsMv87gxKOOKdiGQZhhRIDUixNg8RHj3AzxD58yYi+H6LyKyFKIx0OSI5XkFkUBRSaKPkaOujECTrUTGD0W67BoVQVnESIoE6UZhuYHuKqu0+CgnzdY/XAhzmZwf4vhkRRlDCa0MNdY7v7/X9nz3X41AOxS6UE29LROYsQ2TKKqRa+4TXMBaFifah0OQO9/kkIl7+nVJNuB+pL0MV2I/2phORZPPd/+2ITBqN9nAlJVfgCygP4npEHk7ZxPVjlesplfbV6wleX+T2W+mxbvPYt3su81EV3U4U8lude6zlWK/xbK95om3Q4b3oQ/441jbb3TZcZZsus4239Pq6vAfH+dv7vEf3erwgfmNPR/v+c2jPWyhh4of5vo1SJGQIpRDHy5TQcRBR2YX8+ARqcZr77/GYn2Jj8m+d19XmPrrR+ZnlfpehfViIztJv0dl6E521n7n/c9FZPBKdzeXorF6Nzm4DIvPO8NwuR+ej0bZuoOTOvAsRpjMpZySRSCQSiUQikUgkEonE2whbIXXWYqTeOhuRSSCVUBciJE5Cqq2DEbnSgQig3RBBcgQlrHULRPgs9O9rft6IQojvd79nIOLneUrOuhWIfIhiCp1sTAI2sjG58nV/24vCTUOxNYSi7ptBqd5aLfJxO1KB1aEKqv1IYTUIkTuLPY8vuc1Ez+kkVAV2tu2xLwo7DdJpOFJcLULkyzJEpGzjtU2i5Lj7JiJk6ilVgA92Xz+1bcdScu0tR4RWCwo97UfKs36krFzheY9F5NIYj70WEV9dHu8+SgGPcbbvoxQCcBylkMh9/qbLNlvrPsf4/ViPuYKSXy/mdJ3neu8Gaxjr5z/z3n3R7U+yLeZSwqS/hVR5bbbhUuQrw2zjJtv8Pvd1mPek03u0ufvt8x7WeU87Pe/tvedBFN5N8YvbqS0SAvKlGRSVYJDKgygVmldQW6QGFIrbSK1PRwXmKF7T4G/7KPkTe1Fev6iw/ID7eQ2dsYW2Qyc6g696j+Js7ob2Mnz1YK/nJHTGO9GZB/nA2R5jCfo3YisSiUQikUgkEolEIpFIvC0RRQEGozxsvUjdtSPK9fUQUlxN9bvPo9DLFShXWisiad6JyIKpSI0UOdc6EPkyFSnyotjDcqSGanTbuRRyb6n/Ri7AyAcYZMmOlfnv5/GCtBtaeXcqIjWaqc3/t2GRj+hnjddzoJ+dQMkXtyUiiFYiUmV3FGq62rbYmkLcXe37ZqSAG4qImRWUkMqZqJhFH8qD93vPdU+POQopuGYggq0VqQF7KPt0DlKI3YTIr8lIkdaElGEDqPBDC1KJ3e1nt3k+a1Eux06k7Iz3QQAO+Nkct/mdv1lEUfrd7b5bUPGLAY/d5LlEcZEI1z7Hcz/Zaznbaxtjm8z12nuR2rPTtrnYtvqU2zXZlis8n6G2dbNtfy2FSNza7SJseHevY6X3dEtEovUC30M40PNagyoPw6aLhIDI22bk66dWng+lkIkLKv2AfKda+Tf8vI8S1hwk4Szk440eZzmlOMwF6GzN8viRk3KBnz+AzuZcr+dntsVO6Cz3ut3u6Kx/B+X9nOB3p6J/G6JCeCKRSCQSiUQikUgkEom3GbZGpMBHfP9FlPPtPEpRhaP87gKk3AtSaqyf/wGRDzMQqfL3wC2USrxrUShmPyIM5yMyo5NCsI2jKKmmI6Ijwh+jMmqVAFyFyJgojDDRawl8HimoelB4bWAPSs67KPJRR6ng+yBSbw1Gee8iPx+I5OlBpNbmwEG+n+ZvLnH7M1DetVbbZZDX3IRUWfW2a6gAHwWOpuS3a/AY57v/z1HUb52ICGtBlVqbETETeef6ETk4YNuvQeTlo+7rUqQem+L19SG1ZKPH/Z37CAKw388a3OZ6fzPe77vdZ4+/edVjBhF4CkUF2OHv11TmfrHXFAq/z1HItZcRCRZ5Eo+m5EncxjasR4RXE/LLQbZ5q/fgp5TKzO/0XvW4z809Ro/3FkqewfFuPxiRYlFJOIrLRJGQJZQiISAf6LG99q883xqFdEcV5V2RD1fDf+PXjXy/EZ2FfqT+m2jbnGCbvYn86ky3Od7fXWFb/w6dxbXuZzY6q6CzO8M2u59SDfhIpFJd7T14Hf2bAFI7tlJ7zhKJRCKRSCQSiUQikUi8DfAB4EVEZJyKiI+j/W4/9B/8TYggWIjIjndTQkkvRKGTI4AfI4LiBkQ0nIaKgbQDeyPiaToiSD6OiI8ZiMRYhkiOKK4wg1IEZB2lGnC1IMgAKlQRIb0gcuJZCokzzM+rRT6erTzfx+trpxR0+BQip9b4Gq+pH/iV78/w/S2+j6q3RyAydZ3XMwiRKM0oGq83MgAAIABJREFUbHQKIrC2st0W2Ha9iKS6A5E3n3B/pyCSaypS2jUhMq0TFcro8Vy6kCJsLSKsXnffd1LIzshfOA8p366yHW9FCr9mP+ulEIC9XnOz24z2N1e5j3mUPHpnIfLqTo/9uuey1nOLkO8eSrXaUV7T3V5jvdfcZxt0UNR/vbbVm7bdVrblFNu2GZFcg2z7dd6LI93fGO9VkJyR++5Xvr/B959Ce99M2f9DkY80Il8G+VD4WrVIyDAKefwstYTZLoh03NCPq/n/ogjIDEQSdiHiciU6KzPc/uO25XS32dtzfBadvT94Tb3obI6w3S6khG6/G53pekQ4r0ZnPvJeHuu1nOL2L5EEYCKRSCQSiUQikUgkEm9b7Ak8jsiHM1Ho4nXAz4HtkEIviISdEWmzHSqEEAUqfogIot/42c/8bAIiFhoRedCLyMQWFKbZ7e8it9x4ROx0+77VbXuoJQHXVeZfh1RlfYgkqaqyNlXkA7fv97ojd9tFlWeDkGJvhucS30YxjZN9/zRFqbcrIuem+N0rFNXUA363Lcr914LIotUoTPYwSt6/en97lu21l999HZFiF6I9+B1Swt3ufq7xGGfYTsfbJr9FBM4cRFb1oiIRnUiZ9jSlSEcXhQDsQqq2Trd50s9+7j7udJ9LPEafxxzwHDoplaBv91xHI1+4yGv5mte2l/s8y2t/E1XojWrAk93PMNv0GRQK3on8cBs/f8W2n+J3u3pvejx/KMrEUMQdhvZ4BtrzQcgH+lF4NshH4tlNFGyqSAjIB+fbJjdR1IMg362Sfz3uo9X27XZ/T/h+NiJJu9GZaUVnqBcRoY22zQR05iKf4m8QQftDdEZ7bavtkP/shMjCXlTdeTuk/LsO/RtwJkXxuSeJRCKRSCQSiUQikUgk3va4EeWuuwMRCh1INQRSEl2OiiusQQTWIETy/AmRLauRout9SIk0HRFD5yLyYRXK3bYQhTH2IRLuNURoPI1IkFUUldSb7qvNf4MEDPXUV1B4cZt/x1XWs6kiHyBiZqXXF4TNlp5vLyKwQOqvNhTO+SEUDhoqxf19/7rn9XFEkHSjUE1sk3ZE+F3n9e7l6x7bdgoll10nUhRGGOlOlGqu01HoaJA/QeYEQfYV/z2KQu61oJyIb3ied3qMU2zDSxEhN5uiYDzLdgkCsAORSX1uM9vfXEoJ8e1w3697rHs89rmey1EbzPFf/Pxor+Var226v+lBJHOEb0eOwq1sqym2XY9tGXkUr7Ot11EI2Inekz1RyPg6r2Gw97Ab+dpg73ED2vNQ/n3Pc52OfASUS7ID5dELovmtioTAxv75VWrVfz3U+vibfv4yOoctqCpzm+0URPcJ6CzNRGfmGNtviefbjs7iKHQ2p3hvzgDegc7wGkQIXk5RQI7w+hpRqPA16N+GRCKRSCQSiUQikUgkEm9zDEckQRAX56LCCo1IbbYGESQgEmw6Je/fvyACpAWRIhMR2TAIERRrUcXXa4DLEOFxDSL+XkOkzjUo31sLIiC7EanRgcJMuyu/Xmqrpwb5U1VYVYt87Fp5HtVyn0Y54EDqsk6vd1s/O83txrnfD3k+TW4zDBFhTUjd92mv62F//6T7/Aiq2toPjEQhlXFdDWudYVvtQsnnNtlzCuJsd49xiu081vswCZFOU1GF12eRKu/PnnPY/Bjb61REvEV13xUo/HM9pdpwEIAtwE/87ny3fcHfttpO61HhiCjustJjz/FcXqjMbxIisca6r1P83ScoJOEir/17aG938bMZ1IZLj/Q3x1auT7fNQ9mI96THe7S192yZ93Bb369Ce1zntfV7bSBVXFSB/hc/2xz5UD/y3cCubLpISB1FIVkl//oofh1VmYN866ZUSF6EQrWbKOfmGq/rMkTcR7j1QnT2pqCzuMJ91Hn+1bMbaskPoTN+oW2xCBVrgY3/bUgkEolEIpFIJBKJRCLxNsUNSL0ViqYXUSjqjiisMNRYu6HcaO9CSqY+RCIdQ6l2+yRSWp2DSKJPIFJiGcoleB/KJbYWFayYidRN9yLyYQXKIdeNcp91+n21UEK1IEjkdoPaIh8/rTzfFam7ouBEIIp/jPZ9HaXow+l+th8iZ15DSrGdEKGyAHgPpXDF3W7/sNuPoKjfTqSE8Z6HCoiEYu8if7+t5z6NEg68ByJf7vKv0fPvQxVyB4B/cNtQA36JEko8ULn/EdqPsUgFN5uSc/B4CgG4mkIArkGKsfVu0+Fv4vuxaG8ipPYQj3kwRe3XB/yz7//B7z/l59+kKM3u8th7uO1hyLeW2Da9tlXY9CBK4ZO9KBWYj7Dtu7yXeG96vVdDEUnXgvz7XZQ8epH7LkjbhyjE8mhKMZDAkcinGqglmn/KpouEjKG28u9A5W+b7TsN+f4CdBZW+bt2RNz9CJ2dl9FZ+gU6W4vQWWtFZ28dOotRHfkY992Pwq7fhc7ybhTVaVT//mdE3OL5v06qABOJRCKRSCQSiUQikXjb4++Af0dKp1CFRVGD+5Fq7FpEQryO8q19BYUm/isiKZYiUurPiPB6FJEuI93uIkS6vIpCIV9EZMVLSB3VjIiMUEq9gMihFYi0WOv+etm4IMgWbLrIB6gibT/wnNsBbO/5diDSCmpDQPfxs5P8bVQ83gcRRS8gYugQz/V2v78XESmfAg6gVBGOEN97kJKqy98EKXgcKkbR5bm3eMyokrut2x3ued+HyJo5lBx7Z3vuZ3ifRiEC71pERD2EFF8zEdm2hlIc5HBKtd6VFAJwJYVkizZn+tu73NcrqHryEo/VjEjOds+lzXOLHIXzPff7vJaoALwtpcpxKN+G2SZXUSpJ72XbddmW91FChKOK7wHegx7bHH/T5z2r8x52UfZ6rL89yff7UBsCjr/t8Ly397MtbKs+pIAMbFgkZAtqlasDFH9udrsVyOdfoFRoXmZ7j0FnpRWdne+is9SCztZj6KxFEZcT0Vnc03uzCp3Vx9HZ3YYSwn4tUjze77m/w3MJAvbfSQVgIpFIJBKJRCKRSCQSfzV4JwobXIoUgacj4m2o3z+Dilk0ITVShDnehXK1hcruc8CXETHysp99GZF7UQDjMUQsLEOKrChosRCRHGsQ4dHl9msROdKDSI6qCnCAjYt8ROhoNwoTDZzk71+hEIKHut3MyrObKNVtQaRJLyKc4j5IGhDB1IuIo8hRNxapBpe7bzynuX7ebDvs7rGORkRPKyKQQsk43jaKcOBtPfah7uNylDvuLhTaOQ6RQ48ikuduRORcYztFpd0Dbb+RtvOvPL8gABdTiMnIXXcgpUJxFHJZ4jFe97eveg4zPKc3Pcdmz7kP+HtK2O9CrzGUc1HoYwxSrkUI9GPuY7BtuMg2nWUbD7bNI8fivt6T29zueo/9Fd8/4PdRAfosjxVqty3QvnVX2myBfKcX+D4F33W7RSiHYSCKhFQJ637Powf59Fq36ULnZY3Xv8jruto2XobOzHh/M8lr+jI6Yy+jffsyUjOGOvFWikL1PNtrtdf/jJ+/17b9MTr7S5GC8J0kEolEIpFIJBKJRCKR+KvCFogY2BoRCK8hEuFC4GOIdNgcqa1aEWFwMyU33i5+3ojUQ9egUMNepCZ7E+WLuwEpjKIAxYMoZHGGv1mPlFv1iCyZ57GbkQKrz78qqVKtwBpKsOcpasDBiNzsR/nsAldRW9k18qf1UNSBoQS81vdH+P4q39/kNe6PlFVtlBx00xChMxSRh+s8pyf8fBAieSahcMyo9vsoInx29rP9EVH2sO3XSAn73cG22NX3B3r+Iyt/e5EybgCFda53n72IzFuLCNo3KQRgPcqbuNZtYo3r3ceA++zdYKwez6EfFUgZQKGlESbc6DWM8xj7+93OXvOjtkG/bfKsnw+2zSbYhuts06F+PtU2f8Z7sFVlflHkIvb7CN9fS63y7xDP/zmKCjbI4NhvUOhtP9rHwX42DKnz+pAPBg6nlqzu968D+XQz8vF+2/9et70GnYl2r3kMOjMrEUn5HRQqvNJrfJe/ed42bkVnMnId3uixWm2bzdHefgy4AJ316YjA3xr9WxCEeCKRSCQSiUQikUgkEom/EpxJUbiBCJVjKOG/C5ES6xMolHMYpcLtaEQS/Rl4PyIq2hDpUI+qqEY44zNI7TWOUnX2JkRazKSon5ai0MU29xfEXzUMOEjAAZSfbwEicILQAany1lJyzAEMQWRNL8pFByI9GhBJEiquixExEzkFIxT1It9f5TkdTCGiQu13q+eyHYVE/AwKz4wcfzcg4iVy002lKAIPQGTOTErewK1ts7OR4muy+1juMTo8lz4U/hnj9CNFXCgHuz2PVq9xOVLPzaQQgDP9bLnbtPqbUMT1uc+Byhh7UtSFHZ7Tcs9xsud8tt9tTcnnNxORpRE6vbttUW/bdCK1W6zpBNsyyLsdbetbbPuZFOI1chIGgXcRJfQaivIvSLsPIx9oQEQZyEd6kc8M8bM9PMZaYG8KTvJc5lPI2SoBGOG/4c+vIx+PUPpFtvVMdCauBJ6yzcahysxPe+xl6GzV28Zt7u/96Cyegs5mFMsZ5nl9gpKfsx34DTrrQaLi788kkUgkEolEIpFIJBKJxF8VIvfaTUjJtQzlAwOFX96BSJF5KF/YZigM8jZK4YHXELEwC/g88AgijH6Gwhg/j0iOBqRo+hUiLFa57Z2IrLgJEUdBEFYrATehcMkooFAlV16lNl9ZEHiPURRduyPSZhUijkC55TpQ+GNUCB7juRzp+yg0ERVSL/b7kSivXD0lFDUqCR/g8fr83Y6I/Dkf5anrR+TSWX4+3PadgojLINfmo9DPUyn574JQXI1IopeR8vAer+Na2/oir3UUpbLzSn+zBIVfz0Xk7ysUAvAVpEab6zZL/M1KpBhrdJ+r3GeDx3zDc3jSc7rScwzCLvIgnoqUbfMoisJPeex5btdr23yTQjBe4Ofb26Z9tnGQh6dQQq/rvTcj3e5i7905bvsD3x/p91Hk4z1eRwfyDbx3q5Dv7O5ng5BvVUlhgP8PnYUN/bPfa19NrU8/6rGWI9/vQ2fhEaSWnY/Oyhh0Lpeis7QEkXTdbnsAOnu7efwoyHM7OqubIWJvHtqvsZ4/6KwvQ+HeN6J/C+4kkUgkEolEIpFIJBKJxF8dtkaESzMiHo4HPojIgPeinGCvI0JiNipYEDn2nkXEwXJEYOwFnIzCfO9CBMgPUO6x8xEJMge4ApFP7SgUdjYinToRqdHm61ZEfKzzfCIX4KZCgbdECqpeanMAnui5PUkhBI/xswcq7Z5EKq5/8n0UzDjN90EgRSjpFM9pOCJh+lAOxQiznOh2SxBJWYfIpImeaw9wLqpy24cKT8yxTT/nsba3bW9Haq9ViDAbcB+9KOdcEyK6Iv/fZKQgexSp7O5H5N59iKB7ACnbgviLv3H9ottE5dlX3Mc0v3/aY9yN9u5iz+Ewz+n9nuMnPecbvIblXlM/Cjmfgki3D9kGR9kmkRdwor/HNlzi64mU8PTT/e0B3otW9wsldDsI3CBpQ+V2gMeKvQKFp/chHwH5zJN+dmKl3Xe91hloL0DVdjck/3qRn6xDvtxKqXT9iK/n2Y6T0Jn4AzpXc9CZOR/tx0nu9263ORmduT7b9kbkP6Az8AIiB+PsDkZnugWd8ePQmW9GKs0PkEgkEolEIpFIJBKJROKvFpsh5dRJSAHW5vv/BrwPEQbvRgqkLkT2/AKRGe9DyrUGRNDUo9DLDyDy4jFEcpyHQhKj/2mUMNEuVDSiz++eQwqnBpQjrYvaPIAbhgJ/zWMspFRwBanS+inFS0Cqqn6kKgORIrMRQbObn42iNk/c6b4PYnEcpVrvtp7rHX73MiKt6pB6qwPlVRvtMYZ4zYvcphXlVYz8ftt6Ps+gsNt+SpGMi1B139mogEi33w2gXITdSPm2GhFp9SiMNioBv4AIrslIXfgsUuQFAfgEIqHi3YP+JoqNXO8+z0U+MNJjfshzGOb7oxEZ+ZDnHEVO+lF47jNeQzVP4M1uV2fbTEYE3zrbbgvb8nYKmfqybT4W+UjsR6fHhhLCHURuhGaP8v1uHmMWJbffBW7zKwrO9bN7Ks8+hHyuE/ngpkJ/w2+7ULh6g200Gfl6H3CZ309GJN4zlHyH1yH/7UAVfVejs3UV2osoFrIPOout6Gw2us/90dlt8fvd/V2b+z8JnbHNSCQSiUQikUgkEolEIvFXjSgAEngYEXWLkTLvVUQifAyRGLtQQndvQeqhP6CiBDNQyOgURAKBCJ3XEClxNSJYXqGQHBMQkdIFXELJjzYJkSU9/jWz6VDg9ZRccKA8bvWINNnPz+qQ0isKWIBIqWWIzNrazy6lVOiFQhhF6GjkQNwLEUarKUTUVZ7n9sCXKOTWvr4+jELq7UHJtTgIETkPUcKAd7b9nqKEsw5BZNMPUO62ZxGRtQaFyg54TgNojzpRKG0TIrAWesxZiDSbgsjMDZWAY93mWn/zc/fxTfc5wmMM8t89PYdRntNU4IduO4QSNj3Ja/qIv9vLa17ivto9ZuQXPBSFp0Y+wyBJv2Qb91Dy/L3qOQ6mqOKu87uT/V0o+I72/aW+38bfNlDUfFFI5QnkOyBf6kC+FbkCQeHSVV+shv6uofhvl23QiHz8P/xsESJdo2jMNEQ+Xu220ykVkF9HBPlKdNbehc7e2YhEjVDij6Kz+jF0dl9DisIlHmdcZf6vUc5JIpFIJBKJRCKRSCQSib9SPI5IuBEoF1oLCuN8B1LwzURE10SKAuq7SPV2NiIz5gJfRCTD7oi8aEcE1hpEsjyDwiAXoDyCVyNioxFVM13isdciEqndvw5ERHUghdOmqgL/xvM6kBJWGWTOlpRCC7v62Y4eK4pOQKkQG0VCjqG2IEgoAYNAnImImMGI3Itvt/QcRiPyaDUiXOo85lgUrtqHiltEGPAwRPZMQQReEHnTbccoTFGHCKUjPIcHPPcGpLDrQeq59Ug5FxWBm1G+vCWIOIuiH1XibyYinxa7bTPwBfexhfvc3GMc7DGvQUTeDM+px3OMgitPeQ27VtY0BRFPwyjhvyf4ejglP2Wd57fa17chP9iSkifwMO/BKs8B71G/9wxKSHeE9sa3Uek5irK0UPJEfpxSoKbqS/PQ/h7oZ9exMfnX52+rvhv+PBX5eKv3Ioi+Rb7+jb9Zis7MB73+p/z91eiMzUFnbi46g2ejM/ldz+tedGabEKH7ODrT7/c634PO/ARKXsBEIpFIJBKJRCKRSCQSf6X4BxSC20DJF7YVCgtsQGq07RCJ0IxIiYnAj/z9Yyiv36uIADkRkUc3oGILA0jVNAkRL39CBMgMVDk37peh4iH9iPx4DpFJCxA50s1bVwVe7776KeG4IKKkHYU5BomzD1JevUBRd91CqZgLhSCK8OFjqQ0DHsvGYcA3+F1VsfVHRM4MRuGrbUjt9gwinEAE6RhKYYxdESnzOtqHUMu96O+CCMT2GYn27G6kAlvoZ10UIjBIuwMRmXQmIpBGUwjA21BOvjPd5kBqycTN3edIr+8mjznLz3o8pyD+nvGc9/IatvKaJlDIwD289iZ/W+/vBtlWt9t2bZR9XUxRrN5g21fDf8f63fHUqjlH+f5w30dl41CP1nm+nSjXIpSKu22UQiB4Lv3I5zYM+61W/e22raJa9XPIt/tR7s1lyPf/5L5moDM2zjachAjDAXSWbkBn6wRKEZwrKQTej9DZfMr9zEZqyZ3RWd4MFSyZTSkMciVSWCYSiUQikUgkEolEIpH4G8A7UMGDKYiUehoRFO/2+xXATojsaUUk0WV+vh1STq1AarA2RETsiAi4w5HqaB4idS5DpEcH8DwiP6b5uyakgupBxN1UX3cgQqXRf6MoSDX88oTKeoIoG08h+g71s/sr7cb62UG+DzVfhIhGtdkLfR9qss+53waknMNtomLt/pS8d7v6+uuIbBlARGRUdB0CvOTfUAoZOZpSabgfkXLP2GaHUIjAbvc9HSm/rkXE00EUYm49UtytQ4q7ercLAvBaPzvKbYb5G9zHQe7zWhRGOh3ta7fb9HpOz3uOB3rOUaF3NIV0G4pCp1/w2nuAMygh0Pt6Pf22XYT/fs627aXkcZzpPair2PyMyn5EdWYoId6H+f4g9xWkIUhR2Ushg+sQadkLfKPS7gRqfS+KfvRQfLTD91ORL/cgxWQTJRdm+P46pLA913/noTNzuN/tgEKS29EZW4HO13a+vgyd21aUk3An2x3beBk632vQfj9FqfqdSCQSiUQikUgkEolE4m8EQ5BqaCtE0PwRET6rkdIrFETvQSTECODXiLB5ApEtUVH1HkQ2NLvtx31/DlJArUKhk3cgMq5aBKHBY3YjoqLd1y0oZLKdkguwj1oSsNXjX+Tnl1fW931qwz4B/oxImc/4/kD3ebXvR/h9EESR2y/yyY3zmEORaqwfKc8GIWXXn92uHpFAeA2RW67dc4y8ensilVej27YjFeI5iDDCaz/OdptFUQ4OQkTRCbbbeH/biBRgA/6+FxFpy1EF3yAAL0Ek0T9RiMXIR9jovsa77QmU/IWh5JuNiMHjPEc853/3t+1+1ug1Rt7CESgkud02eYJS8XcqRSl5P/Knd3j8fvcx1HsQee0ib+PBvh+L9nCE769GexwhvJ/x+9grgN+6jyqhfLmf/bKytir5F77Y5bVESHvcT0F+vBr5+I2UIjgPoLNwHdqX5WjPn0QEaLvX/hQlDH8iIkEn2I6/9hrbkVpzM7Sfd3nMxSg/4FB0xpvRmU8kEolEIpFIJBKJRCLxN4QjkRIpMAkppD6ISIc1iBC8DYUegoikyUhtNwcRUBdVvt0fkRDLEOHwYxT6eKfbt1BCGMcjMmQKIkI6UUjyfEpl4qWI7GhDpE2EBVdDgSNP4JGVtfwSkTM/qzx7zN/vU1lLHwqjBYWUtiOCBQoZGMUlznCfURCkGeVZA6nw1iKC7ExEqA1HBTx6kbrucgrpNYWSv64D5XM70m0Hee13IgKyz980IQLvakoBi/X+uxIRsne735G2J7bV9oiEHUUhAEf5ux0oZGGnv53hvi50m+pYDZ7DxZ5Tnef4JUQ+vek19HpNZ3uNIPXec9SSocPc9ge2Wa9t+E7kL/f62/HIJ6PwR1X5dz21pN9E5DNRJTpCvqP4xT7IF6q58M6iVvmJ59/neVRDf3v9fbfHGUC+GuHD4ccdyH+es20j/96V7nMOUgRejCoXN6OzsxwRswehs/VLdNbmAv+KzuDnPMdXkdqy3va5B53h+DYwjdozkkgkEolEIpFIJBKJROJvAD9B6qzZqELpOopC6I/AvwGfoBQjmIYInlvd5goUYnkFIkkmoXDGJ1G10iWI4FiO1FpfRcTTK4gMuQIRI88jouQ19z3gNpELbQkiVVZTiJcNScA/VdY1ho0JwUmIbIy8bnshwijyzA1F5MnMyn2z5xvt+xFJA7VkVIS+7o8Ish7bYZDXdaXt2o2IrR0pYa9neV51lMIN21CKZ0xABM/Wfra1292DlHfrPJ9eSnXn+xDp1uRxI6y3BanlggD8gZ/hNu/yN2e7j6gWG+rAdSgn4r2eQ3VOr3quUcxkG69lltfWZdt92rbakdpw6Cttq0G2XY9t+XlKKPSGpOtpFEIWSih7FHmZucF9KAOj/e6USr2BKNAyuvLsT9SSf5Hrrxf5ZBvy0ch9+Yqvb6VUv34ekXZXIN9/xfP9qvtfhci9JWgfnrQdJnm8q1DI7xWe0+/QWYziOU95Pf9GUa++2+/+A53xRnTmE4lEIpFIJBKJRCKRSPyNYTNERN2PiIp5KDS0CanGQEqwoxAJM9ft7kcFFKLAwloUJvs6IjjORwqoEUhhNx+RMfNQCOZC4FlKjrSpiCxci5RUDyOCpaqqCuKvi0IAVknA45DyqwcRRyDyaRoil0Idtofb3FdpU0/JvYfnsszvhnr8h/yuGo46GCkQ7/K7ySj0EqScXOs+xnj9ILLmDV83ul2QfnugYhuRy60DFYG4AJFN2A6HIyJuJlIuDnicVcj2v/MaRniueA3HUgjA4yhhxv1uO8ff/sJ91dm22yIy715q8wCuQUrCUygqv+Uo3DVClbdBeSAjzHmObRDfj/Y4a20LbMPJvr4b2XgwtWHXUPJPDnUfyyu2jVyE9ZSckBECHkTwCM97WqXNAW4zEVXYreb9C/VfhKR3UatW7UW+u9TrmUPJt9iDfH4h8I/oLKz2fMd6LvNtzw50lk5EpCfI7i96DXFWv4jO5t1uswM6u5f4fZzVfdFZTyQSiUQikUgkEolEIvE3jNEoZ94nUb62HhT+exUiUXZxu+cQEXgUUhetRYRRJyIYjkeKpqsRQTLefV8CfNt9tSCCYx9E7ExExMmtiPRZgci3LkSCrPV1l7/vRMRGPxsXBekEdvNc61DhinakOAORLF3Uhn5O8xjDff+w5xf3sxChU8fGBSkeQiRWHSoi0Y+Irw/5+lsoxLXPNtuWUtyiWiDjDo8BpdhKFLgYhIi+B4D/Rsn/V4/I1ZMouRC73e9EVJjjYApZF+G9QQBWw4S7EZkUFZ8PrXzX7jFu9piRB3B3z2mmn4UK8nIKWbnUaxvm94dW1vUhREj2IrXftyrP96i0r7ONH3Sf1cIrdR5jlt8NR3v3QOW+haLkBCkIuyiEcBSumU4hAUMduGHRjz7ke53IR7vdbi3y1S4UIr0CnZVbPNeJaI/29vxakC8fiVSgd6GzEjkrQ+G5mce6xWO0I5Xfge4fdDaXo7O6CJ3dG9BZPomi2E0kEolEIpFIJBKJRCLxN4zNEGmxs+9PRKTBbijEtw8RDNdSqsXWISJjZxRi2IXIoQmUnHpNSBm2GJEXv0VhpR90n8v89yuISBnv+7tRCGQbsADloGun5Bbsd/sgADdUAn4Yqb/eQERL5IHb0XN+urL2RxHBsq3vg1yKMNGbPVb0sdhrgFIovcGZAAAgAElEQVQ9+DO2Rwsl/PIFihLtIUqRi8e9JhBhFPkGO4CfetwBYAt/F8RWVNy92jYAET1f8pizKeG+Q/3dHdSq/HoQ+RYEYCjdcJvj/M0s4L2UsOA5HuPQSvvlnktUWcbfPeS5DwD/3WsKZeAErxnbIEjYBoq68g3bDo/Zgmy7H4UQBJF1i3z9IbRH4Xd7IT+KXH7boj1+lIJnPK8dK320ePzByK+rqr8BCgEYvrcc7UU7IvwW+PpJ5MN9aL+7kY/HOerzeK+h/ICR9+9H6MyAVKATUD7FLnQOd/ac6yjVna+t9HkpOrO3UoqZ7Ewp5pNIJBKJRCKRSCQSiUTibxgfQwTJrcDXkYLv3/zuUJS/78OI6OtGoaFjEVkxGJFKTyLV1AsUxVUHsBMqxBE5y/qQuqkLqbNWIIKpG+We60TEUB9STT3i63mIYOpHhGCrfz3+VZWAA4gcWoOqn0Ip8BHkEoh86aOQfSPdz7G+D0VakE6jvaYtEdnWjkJb8d82pIQ7iFLtNhR/h6BceVGtNnLl7eLxehCx8zAi83D/P0UkX5Vku5dS5TfUgXdRm69vBVIpjkL7hd/tSyEA9620X4Uq917gb6P9fpRQ41D+7UzJAxjtDvFco/LvbK+lzms7doM1H2xbbO1v+22rqI58kMdrq9h4jPsf4j3opOTqC/Xlt3x/rO9H+j5IwSjoAvKFdgr5uxWl8E2VUO73Gno9n1bkg/22wVz3/QiqaBzE3zrk+93Ix1cgn+9CZ6wP7VsUVNkB+ddz6Ay9gJSQT6IzNhidubFov7rRmfwwOqPhp0e7/68hIrETVRZOJBKJRCKRSCQSiUQi8TeOnYAfItImihmchVRV57vNl5FSawdEpLSgUM9nkaru3W7/PRROuh6pm2ahfHu7IHLlBESoLEQ5z0aiIgkv+fmNiAiZgEiX1xC50o8UeHP8PIi/UGRVSZtQAkIJA41KxgCnU0sQjUCEzK98v6P7v9L3QVJ9yfcTUE67OkSu9CPyFEQORQjqs54vtt3CyvehhpuL7A4ia06iFB3ZnBJmCyX/37mUMNsWpLQ8i5JncB0KL70eqcigVAMOAjCKkeA21/ubKCyyBhFYp1OKhawBzvEcuvwswpM3pxTl+AElvPhhrxFqVY+LKnaaY1vhZyt9/XX3uSulEvJ4v/sShVwF7VUPRdV3NfKTCPUNgvd039chn2ihhHt/hI1z/lV9rNtjzEG+2I98c7rHmoB890a3ewkReSORry/08xP9/S7A722ftR7zYHRGbkJn6mnbZrXneh06g+PQmQSd0RuRD0zzvB9GZ/ojJBKJRCKRSCQSiUQikUhUMAKRFAcBv0ZkUCMiI+6gEGLfQ2TfBxG5twiRfUtQDrgtESEyFKmc6v2+HfgsIl6OQqRIO1L4Xe2+JvnbcYhMmYiIl6UodLPHzxv9bZvbb5gTsB/4KCKt3qDkdwt1WCj93u8+gpiKYhov+X4LjxdKtCClQjlYj4qYgFSMPYgMiyIY+1By4I20TfqQYmt7ilrwWxQl4L0U0mwNInh2p6j+JlKKZIQq748UVV4/Cge9l0J8rkcqtyAAt6ZUCH4VKTN3oxQNmU0pThFE4XMeu5oH8EIKGTnXY4by718r329Pbd7DIOSG2UYDHn9zf3u2+5xqG0MhRoO4HYP2Zgvfv0QpXgIllDzeb7j3dYjMW4N8ZUP/6Ue+1e5fo8frRb7YgHxzop9H8ZpnUbGOq22TduTrR9rWn/GzKIzzkG0S+RCvQGepGZ2t+9BZC4IddD7vQGezEZ3Va4B/Rmf4oyQSiUQikUgkEolEIpFIbAInUIoGbIZUSXsjJdEypOp6GhErv3a7XwOnIhXV60jNF+G5R6Iw1IsRIdGJ1FJBqN2EQk/vQequlYgA/B0i5LpR5dMIjexCRMdMX3ciQqkTkSdRHbiq4lpIqe57ACJ1Ij9cVACuVop90use4vtXKTn8hnoukW/uTI87HBFX3V4vnuPzvr4HkUV4bVER926KKvAlSn7Cte5na69na2TnqA68ChVW2ddrxnYKImm91/MUpeJukH1BAFafRbuo+jvUfb3o9/0e6xKKOm85UkxW5zjKc8drie8XUirVNqIiFdgm8fxFSn7FUciWmyPb9iJbg2zf4XegvXnF10M8/pO+39T+Xuj1HOD7wUiNt6lqv30eK/52o31dh/xvMvK9F/1uAtrfSbbTarT3P0e+frv7me7vRiCV5VXorPSgs/M8OkvD0dkKZeqvvbYn/P1ydDb3RmRh5PobTckDmEgkEolEIpFIJBKJRCJRg8lIbfQ5pO6aX3k3CymwDvHz5Yh8eRNVrR2KyLI9ELGxFrgfESULECERlWUnoKquLYhYvB7lTTsV5UprR8qn25AScB0ikdoQ2dPpflf4ugmRNL1sXBQk8s6NQARLFOoAhZO2AX/n+3Pdz+6+P59ScRZEakWOvC3d37m+DxITSqXbnSmKvyMQCdVFUbd1ofDdIRRSKpR+WyDiNPqcidR1uO3uiCgLMnGF23+aktvvVX8zjLcmALekVinY6z4uoRCOTR4rqvNCyQ0Y7y+mFADZHfiC277La4yQ4cj1WIdIr1AERo7A/St93uPrc5Gtt/T9SgqxuaPnPMr3u7vP2JfhaI8fp2Cs+xtRGXfDoh+hKm30fFdQSOdX3OdC5JvjEOm2iFIU5DSP+Vvk4y3I55/wHLrRmXjD/d6PzswIYE+PMRTtw5vorC1HZ+kQRMiG4hN0Jj+B8jbeRwmpTiQSiUQikUgkEolEIpGowZcRmfccIjpWImLlQKRceqfbvYbIoA8jEmQaIji6gF+iEOKo0noeCoe8CxEs4xE5cTrKJTcJESORT60NEY0tSJm1DuWFewgRJGtR6OSbnuNaRKZ0+5teCnlTVXV1UVsJ9kpEFH3M91Fp9kTfB9kVSqojKcQbiCxd7OsR1Oajq6fkqruDopo7m1LJ9STPuQ7l1WuttI+Q11m2HZ7/NxFBFqq/R5Ht4/1I4PhKX5Hbb1tKGG+VABzwuxso1Ylb3cfXKKTdixTb9SGC+FuV99U8hfVeQ/R1jtfY7TVvSIKurLSfUFl75F2MHH6LKWHPsTff9v2Jvt9jg/v9fB+k4GUUjEd7UfWRqPTbS61frXXbN5HvNfvZQ4i4W+f5tSDfbaPkrXwQ+fvhyOef9djr0Zm4A4X8gs7MgcBFyLdb0P4uRAraPSgqyXe5zQHojK30/VSvM/IDJhKJRCKRSCQSiUQikUi8JW7w7yJEOvQjBdwoRDREhd3FwHYoJLMLEU4NSGH1WxT2GARHGyKOZiNC5RVEbuzsb49FhMtqv/9XRK487vFf8HUzJQ/gas8nKqMGibOpwiCR++0YanPJDXd/oTgbhIieUGtt4fld4/uoOhuE00yKgu5wv9vKNumtjFsNf61HSq24/qOvVwOX+joq7H6Ckv/vakpIcj2y9yCvbzjKwbi0Mt55KMdelTQMAjCqIJ9HqRa81H0Md5+DUNhtEHMNnkPkAdzNcwzV4aWUnIB3Vr67r3J9A0W5eLy/HWKb9SMbgmwaxGKQflHt9jdo3yO/30SPO8j396A9jQIfkXPwaN8fw6YLfkTob1S87nS/q9xfMyLwXnD7CchHv+H3q/3td5HP7Ix8/FW/n43OQJvn8XNUtfe3/q4B2bsT+c/2FDJ9Kz8fhUKB+9HZvIRyXhOJRCKRSCQSiUQikUgk/qfxPAoFBRXsuBMp+65B5F4bIgT7/HxLSojvnojoOA0VQehCZFoHyld2JiIFv0MprtCNiIznkNpuNiI+OoA/uM2NHq8BKZ1a/H0QNd2UkM1qYZAqEfgnv4s8gHiO9ZX7xxDRE7kDp1BItTqPG6HEURQkwoRXIWUXwC0UMqxaACPCTncGtvH1R/wbQCG7I21nUA64CMd9mdqqwd+kNhfgfZSceG3AcUixFwRdlQDsRSq54yiE1CsUYrLPfR9JbVXfKJCyHOWvi76+4rlvuJ5tvNYIx64WQsE2usXXd1EUk9tTW2F5LLJ95PNrQP4C2qu11Ko86ynFVEB73ot8YEPiL8i/CCnvpqhg2z3uFI/Zh3yxEVXx7UBE+Gx0Vp5Dvhz+2I58/Qrk+3tTKl13I2Xhaf5+T8+1G52pL3i8p9Ee9aAzeLDXcZTbf5qSczKRSCQSiUQikUgkEolE4v8XQxAB8UXgvUjV9TO/+ywKY3wPIp/afd/ub36Bcr5FuObPkKLsMERgLEEEy2xEcnUh8uZlFFK5DpFtE5AS6gYUBtmBCJ2lnk8QNG947NWIAOpChEnMp4eNlYAtlbX+3v2EUuw4aqv8xv2uvr/d6wil2RoKGXiKxxtqG/YAP/C71ymVhu+n5Fe8GeWIAxWQCKLxQYr6bSaFlGtFuRI391q2QORRFN+YZjvi9R+M7BwEXpUA7PS7gynk7UMUImmt+44cgpv7PkKM/7zBHB/w9VKvBa/tJl/P99qxLV739cnIVoMp1XBP8ruxyMYgm7dRKjLvivbmGN/vQ22V3+Fe4+8paGVj5V+P199OKSqzFvlUu+cZRUAu8/rq/ex5RAbe7DUtRT78EPLpwf7uK8jnm9AZaENn4ucofyLozJxCKYLSjsjEdnTWhqKz9lm3/3d0Ft6Lzmo3pXhNIpFIJBKJRCKRSCQSicR/indSCgm0UYoonIDCRce43X+nVHr9FFLsXYjIoD6U3+8JlOdsc6TG+ggiOab73QAq6PAcKrpxHFLg3YfIvIWIMDkTkS2v+XkjqlgcudIiRHOl/7ZTVF2h8KoSP63A9/z8QK9hW7e/yPfDKKQPFMIpFGmXevxQCrYC1/r6OgopF4q/XSj58CLX4BpKyO8qFF4bz0f5uguFjQ7x3LemkKeg/Zjj63qPDSWH3jG2B9QSgO1IQfYxSnGP6yhqyDmUve72mFH1dwi1eQBHUYi6qykhxZdWnp9IyXtYtQnIVmG76ykk42Bk47BRKC6DkL3cfb7f9xejPfyQ7w90++8hP34r5V8/Iu6i4Ecn8rEWX9/q+y7kg88jn1yCfLQL+exjyIfPRz79lMd6ApgB/AidgbnAuxE5+ixFTTsT+d9i4JNew4vorIH24zx0FqOITZv7uI+SpzORSCQSiUQikUgkEolE4n8agxCpdjZSdUW47iSkAHsR2IGiDAT4EiqC8AWUmy0UT+2I3DkDER4gldTpiJRqRYqxRpQHrg0VvehGJEs/ImJWoJDRyPs3FZE0CxAREwRht/vo82/DCsHrUfXWwEJE0gRe8rNAvccChWf2IkUciPjssL0GeQ4/9buJFLXb6RQ1XijWtqAU6tgGkVcRCvxxSv6/aijutZTccFMR8QQKXT7V1+sRUXcSRfVYJQBb/O7dlCrBp7oP3GesdwmFoOvyXCIP4K5IbTeACMIIa96WUhl4b3/baRtArSryp+437NdJCdM+Ddk6qgBPpTZkexGFiAaRaAsr97dSu+cbEoARWhsEX4TlRlGNyAd4CzoLt/q7hX73T+7jcPexFPnyFK/1Zc/jad9fj85CVBKejMLoH0FnBz/7DDpbL6KzNokSVvw7VGBlJUWNmkgkEolEIpFIJBKJRCLxv4RhFCUbqFjFMYiYuw8RJUvdZgVwLlJhRUGNn/l+cxQCeSvKM9ePCI05/uabKIR0b0TGTHSbySh09Duo8MJYRIKsQGTNpSgvW1Rn7UQE0Dr30+r26ygFHjYkAX+LyJ1OrxcUutuHcteB1F69lOInj3tcKITVKN9fSVGwDaO2eMUilE8RYByq9IvnEHn+LkahoqAce/H8DorSbwql0nCDx8RrPhDYkVL591yKIq9KADYiEgm33d7fRu7BqyprnFj5bg4lrLaaB7CJEs663GsC7fs4X99JIS6jmErYvA0p+qAUmwlyqwHZHLQHvWhPQNWo+yhhw8P87c2IbNuQ+AtCeB3yjVb314EI4E7kT2s87mXI11a4/VhEyh2DfHOy1zHRttsb+fI3ke3nIF/vR75/q23yHsr5AJ2Zi/3NCnSmlqIzdh86c8dQCsZs5rmH/RKJRCKRSCQSiUQikUgk/pdwCCIrRgDvQKq4UHNdgMgKgB+jMMeL3b4HER8vI+JmH6QQ3A9VDV4KHICIlPmIfFmHVF8NqOrrHaja68uI6GhC1VT/CNyGwoiXIjLncUSYvOK+ej3+KkS8RJGQbkrI54aqsK95LVt5/hf4fkvfn+f7T/n7/Xx/M0VhV+exou3tiMwBKeVCGQcilSIUuIGSK+8NCoE6E6m/AOZRQnJXUhRyUQwESjXgauGPCykkYpUAXFFZY6+/ieq/oCrMoTi8hFKc4/eU4hr3U/IA3uO547UEefh9SqhwKB0jhLeRktNvFNq7KPLRggg8kK37ke1B9u2hqAJ/6fsgaL/GxvsbFaLDDzr9bCXylSABX0W+NN7tlyJfuw353qvIF1uRb16HSMFPes0XIl9eh3z7RaSGXYp8fz90FvZBROFMj9+Dzs7FiEwMdem5lH3aC53BdwAfRfY+hEQikUgkEolEIpFIJBKJ/w18FuUym4cIjT5UlfcMRCYFSfFjigrt+0j99XHgbkSSvOxv5yBSpxsRGD9H5Mbf+dkFiFyJkN6XUXjoVJSDrgkRKv0oD9ubiGx6AZE2bYhsmoTyqA0g8msZJd9bN5uuEDyAiKPpXm9gsvsKzKdUn93CfZ7g+yB/6vzrooTkPkpR8B2BCJ86Sl69Hf0uKitDyf8X14f7Oir44rl/iFJpF5Tbb52vr6WEzFYJwHpKWO86SkXZqFAcocggsjYIxW9SCL1qHsBDKm1Cgbi119hTWcccSrXe0/x92CtIYJCirxcVvwDZPIqngPZkcuV+PiLnvs7G+xr7HQRwH8UvBtzXJM+lDfnSC8i33kS+1o/Itybki1PQOXiZEn7ehHy4C5GpFyAf/6ifXe/19/m7qaiy8sfRmfm+13IV5WydZnv9GJ29KHIz39+HHyQSiUQikUgkEolEIpFI/G9je6TK+i7wK0rl3SZEJk0BjkfkxTX+phrieD9wFiIyIodaVP0N4m9PVEDhl4gAWo6ImQFEALWiKq+LgJ9QCn/0IyKlHpFCS/1slq8jt1sThQDsZdN5AQdQ7jUoYap7+v5YRMBs7ft7Keo6EDET6z3b8wOFsvYAR/v+ZVQgAkScNvp6JCUENxSDgyhk3BCKiq6OokYEVZoNMu5MtD+gfHGh2KsSgPNQ6DNuGyG1Xe4L9/1Jz2G9xx5CyVdYzQOI5z7S140UUvgpRJ5hG/RQwns7kK1AId1RsAS0t6GG3BrZPqr87kltePVObHovByh73eO1dnudDchH+pGfTEZ++ZCfRXGZn/j5MZT8fgNIybcc+eolyHc/SSECoyrwQvd3GjoDUQ25ej6uQWfnOOTr9bZhVCT+td+1oLOYSCQSiUQikUgkEolEIvF/HJ+mFIUAhS7uhoiZBxBR8ztEevQghdIsRKocDjxIUZmtAD4AfAOF7f4CkRytiHRZQiH4hiMS8AxEIs13/0uAaSgkdbznsM7f9CCyay4ilKIgSPyCEAx12KaIo68jsiVyrtX52wjV3cbfBll2LlIuRghrI3CDr8+mKPKG+LsDfL+IEgb7KFKxgcizIBdPp+RiPImSY/AHlPDjs6jNHbjE12MpYbpVAnCm3+G21Vx+Z/m61WOA7Bghyy2UYh4rKETfa5R8f7dT8v0d4DUP8f06Cul3A4UAjRDqyE0YVX+38f1NaA/Cxn/0XDal+ttQ+RfqvqoPtCMfedRtIhT9fuRTv0c+tsTv5yPy9ifIJ4d7vj9FZOIq22w18ulXkI9/gBIKfiQ6C4ejsPk5FJ9einIE3us5bIPOWOwf6Ax+mkQikUgkEolEIpFIJBKJ/wv4ISI9PolCX9dQChDciXLGgdR75wK7IAJlEiIHWxCJ8hIisy4DvkfJG3czCqX9IiJLrkZETafvX0YqqcmoIMJCFFLZSSFuxqFwzYmIjOrzty1IUbUEEUPtiHSKcNAgATdFBL7P87uBWvJpIgr9DLQgZSRIldZHCV9toBTOOJdC4G3pMUb4vplSTGQGRSn2GKXS7ViUKw6k4Is5VJV+YykFRh5GJBbUEoDPIyIK93eHr+e6L9z3zb6eQ8lB+CIljPd+FDaN577G1yO8tsjT10oh9n5PyRE4FNkqlHxXU0jNmMNEXwcJG8Tq+3hr1V/k/OtFe93uZ0uQL7Qi3+hDvvIkCvsdh3yp07/rka/9E/K9a5AvLvf7Ns95FfLdEyo2ewOpYi9DPv8SOgMt6Ew8gQp8fBT5xS/93bcoxPMw23QLdPYmobOYSCQSiUQikUgkEolEIvF/HIcDzyCyZB0iWSYDo5GC6WJUIORqpIiC2hDH61A+vL3c/k4UGjqAVGcLEEFyAiL0tkJhjz9Bqrf5iNjqR+RNFyJaFiOV1WJUqKGHUgjkUX/3OoX8W0pRdPVV+qqqATcklW5z2+O8ll2pLQRyhvuLsNY3gAm+3pOSDw9EJoXy7iIKYRahvUGqVvP/VSv9zgTu8vVzlXGeQOQQfvasrx+n5MqrEoDPIWIRv4+qwpPcV/QT396L9h5qKwQfQQk9HkZtoZM1XiNe80JfR97DCK2egPYIZMNuSg68KACyi++PQ3txG29N/A14Tq2Uwh+LqfWB15HPPUIpANKD/HkxynW4GPlYFyLt+r2ON5FP/gT56AcQGXgCpbBNk8d6Cu3XfOT7p6KzALXn46fo7OyNwonneS6T3c86ZP9nKLkgE4lEIpFIJBKJRCKRSCT+r+EjiAT5LMqLtgwRSKFwakeqs1cQEXUUCgmNAg/3A4f5ugPl3PsFUpL9jhLKuxKRNRf7fg+k1PoGUk5NQOq1DkTQLPazcZ7PE55LFyJ5piH1V4vHiLDPNRS12FuRgNVKwa9QQnXx91Gxdg9/G4TVExQ1XuTy29n3Cyhk3uVIRQbwMbd7p+/7gc/4uoVSWGQRJd/iLIqK70UUEg0i/EKtVyUAq9cPUhSGd1Tmey0ljPd0pFDEc+nz9WBqVYyNKJcfXlsoFD/sdh+szDeIxl2ozSV4PYUYBRFfMb+RbLwvVfIvVJ1r0N52o71uQT47zW0iBHgi8plHkM8sdtsO5FsTEPn5DeR7e/jdxcg3VyLybx3y3eko/98OlByQh1HUnBeis3CU+57lOUWo+kuexzJ0tj7reX+ERCKRSCQSiUQikUgkEon/QvwTpYgFiOQJUusW4EfAvkjl9yyqXtpAIeqaEOnxSxSGeQSqfBsKs1tR6OSBiBQbhYilBqTSWoUIrAbg2yjn2l6IRLkFETzr/HciIlPGuf/I/9aDyK2FFNKohaIGjNDgDcmmUD8GWXWS+4r8dpMoOdsGue9QbN1CbehrVQX3BqXgxZWUnHF7UQp9QC3Z1kEpLLKCQrBWw3hfAv7s6yrp9wCFVKuGD19YGfs7lNyFEdIb6PfcYuzLfX0PJaw71I8RCr2MEh57OLJNqCZfpygYhyCbRs7B3SgquA2Jvwj13VD1F/u7yNeRB/I1RPYtQ4ReH8VXbkY+tBciEI9A+/Uo8rke3zcin1yFfPRE5LO4/4P87Qrk49OQzwex2IDOxAS0D/uiMxNFWT5MbcXjp9CZSyQSiUQikUgkEolEIpH4L8OPUB60IxEx0YLUbSBi4whfV0Mc43qY24xBOeGWI8JsFSJ1XkMqqhdRjsBWlPvsQqSs2guFch6HiJvJFHJnBSKRnkEFIx4H/uTnSxFJNI+iUFxACf0MRVgTRQkY1WM3VShkFVJ5NaFQTby2aoGP8z2vwBoU3onXHrkA6xARtb/vp1MUfJdSCLl92ZgM3NHX6yhFVpZT7F4t9lElAKvFQS5BhBjuI0i/qKwb6EeVh/GcYi0PUPIA7u+1RK7Eau6//6BW2deGbARwsPuPEOjbENG2g/9uSMTGngR524v2IvL3hbpzASqc0Y72fgD5zwrkG48DNyKfecbPW/39ZH93nL/ZCxF6FyKfbEU++pLX/xrFN2aifTgH+fodXtvF6CxA7fk4Ap0L0Flai8Kfv43O2ikkEolEIpFIJBKJRCKRSPwXYl8UxjgGkSbrEdnSjEiRlxEp9gTKM3coKoRwMyKGzkVkHoj0+LavV6JCCr9ACqibkbqvCZF0UaG1FRFHDyES6lik6jrVfdxLyQXYh4icZqSwmo9IsDcrfXb5PioY91GIwSAB4++mQoP38Pxvp1TuBZFJoeraB5FWoYZ7g6LMO9xjBboqNplKyfM3ilLpd1OKvN18vZZCGC2gFM2oEoA3UVRmP6JUGd6NjUnGj/q6iULmTaz0dSQi3QI9KFQXr3GOr9/rvvfx/S0UchNku6iIvCdvHepb3ZNqzsdQ6L1JCf3t8f0Uik81I5+o7vO9yHdORb50LPKth5CvtSLfiz6bEJl5s/v/BfLdlZ7/tymE3gXI5zdDdr8UnYn7kEL2VkQitlJCl9ejs/V7//YlkUgkEolEIpFIJBKJROL/EYZTSKn3I9LiHBQ++jgiAx9AoZiRd68ZkT1/QsTHw4hEmoGIkx0p+fDOR+TKcH//TUTmTHbfXf71o9xpTaiYwovAmZ7DrYiEeoWiDuuhKLwmIeIolF99iBCLSsH9lW/eigRs8/vIz7ev2w33/aOU3HqDqc3r9yglp2AQe4N9v8briHYRtnsCRV24uecQ4bRdwFd8Xc0TWCUAr0X5EAG+SinkMch9be77NqRyw2M/5OszKWq+yAMYeQ9fpeQd/IzXGuuZhQg2kG0GKOTWqciGbbw1+RfhvKHQbET+FMU+WtFeTkJ7O7nyTSfygQiRfhyp8F5EPtOEyNZ+il+97D6mIN9rB/4O+WSoF1cjnz0C+fCRttNLyMeX21ZBSi5GeRenovNyDCIIJ1EUkKs9TiKRSCQSiUQikUgkEonE/3PsQskfByIxgtjaVIjjO4EfIKLla0h59SJSE67wL/LszUEETAMKu5yPiJIzUF60dyECaI2r/8wAACAASURBVCdEqFyHctDNdZ9diHTpRWTLOrdZjUixpX7eSCGIulE+uubKL4indmpJwE0Rgb1I7fg0tYVCuhBpByqo0V551wKc5evLKaq4INYizLeekkPvegqBty+lKAeIwIrcgiuRchBqCcBRFLXaJ6lV/fVRSLmFwG99fTOlqMfOnluQjispeQDPoSgK8VpP9/WJFLIRZKOn/W0vmyb+Itw39qDb982IWGtGBTuqe7gK7W0DIjub0N6v8/Net+tCvjIX+c5vkS/tjPziXcjXTke+Nx+Rfw3IN+d4Lh0U//29+7wXqTsnAD9E+1lVvFbPx2coORBB4cpZ+CORSCQSiUQikUgkEonEXwQOQoTaGODXiFS7HKmgbkW53HYBvgvc7W++iNRXAF9HKikQcXSRr59GudcOR6TPz4EXEFHzMoUQWoeIsMkoj90oP/sqImu+isJVrwWeB55D5E0TIpbWIsXZcx7nUaQim4eIuX5K4ZA2P4uiEz2V6w2Jq/W2xUdsix5KXrzpFIXctv5+WOXdg77+CiKpAp3uK+zztK+PpzbX4HpgS183UasgDALwbGqVm+sr37e5zw3HOZJS2RbPLao5P0gp4jLMa9q2Mm7kCKxDtvg2ss1SNm279ZRiHlGUpcVzi5yP/X42z/ePoj18zvdr3abJ4zyHcj9ei3xipL/9KvKZUUitNwn5VJVsDOXgi8gX25Ei8ISKfS6ihEj/Cfk2KAz+i76+G52FjwC/QYVyvo3OzFLgVygMejXwBRKJRCKRSCQSiUQikUgk/gIwGBWOOArlkluJCh78AeW5a0DESSsiddb6WTsiAcdTKtiOQQTNYYgouRTYBpExH0UVV0Ml9YTbHY3ImW8gMuhGRPwtQGROHyU8dzIi8m5EhM9Zntcl/vuIn6+ihP2uRMRbkEytiAQLArCTQgK+lSpwAKnJ3o0Uc/1eC6jibyjxoJbkG01R3EWYbxCF9UgFCFIcLvX1cGrJvBZUqRhqCcCT/C6wnhJyutR9Qq3ScJjbRcXjNynVhjfMA7jSa8Nr7UdrfzebLupRDfMNwq+TQgB2INtHMY9OjxHhwKvQ3j1C2dNQVrajPe9C/hNhxn3IRxYgn7nJ3xyOlIlHIx+b6HVMAj6PfLEe+eblwF3Al5HvjkE5/5Yj337M4y9BSsX1FIJ5scf+AyrKEjkI/82/CJtOJBKJRCKRSCQSiUQikfiLwgIUkgu1IY6fR6Tdlr5eglRRP0Rqp3MQEbIaFVuYS8kVGGTcUl8/jXKtzQauQGTQ6UiFdjsioxYiQqsBFZ2Y7LbjUeGFaX63BBFDQTgt9zj1KIdbI1IOrkMkUbSNXIFBCPZRQlU3VTW4GiLcR8mxNw/4o693oTb/3yykEAOp1apqwHaKSu9eSrjxp6gNB+4AvuXrKgF4JKXaL/4mKvy+6j6hNtcgnsOhvr6b2ryG1TyAd1GKf2xOUfO9FfFXtV0U52ilFPfoQ7Zf4HlPQ3vzEqWAyzIKIdvlZw1uOxnt/RW+3sfv/g75ypHIdx5AvtSByL3ZSL34jOcW/tKPiOu1aA8fQL57BwoVXgOcjHx8CaoMPQydgc/bLtXzsROF7E0kEolEIpFIJBKJRCKR+IvGEmA7X79VjrNhlAIS70SkUh0iB0OVtjel4MWPkRJtWxT++2OkNmwCfopIqGdRrrUORGBV1XkdiOTpRKrDLhSevBaFLS9Cire5SAW2EBFgzSjsuAups0L11+V5rvJ1/K2GBEeRin7eOsQ1qtkGkXc5tWrADlQgAhS2uqTybgAVDAERXA/7+nBqlXidlIq8VQJw5CbaRcjqw+4T4GPUVhtegsJU8dyqJOJKinLwOEql3rdaf7yv2izsGzZtRPsU+RwHPE4X2ptmlLtvEdq7uciOC1Fhj2akUuxCe9/pd+uoVRm+5usJyJdmIf9tQr52BvK97ZAv/tjrfBH5Ksgn3o+q/XZTW8gllJtvlSNzO2r3N5FIJBKJRCKRSCQSiUTiLxarKeq3Dv8WIIKmAxFQ4/3+bqS66kAhmpf4+gLgNETaHIHUgW+gnGi3IKJnJ6Tg2tttxnv8GYhgORHlYfsgIoH+EYUKX4nUWtP8vtHfdiG1V4QMR2XfPs+/GxFA7R6jkaIwi7DhKCwRZFaoBOP3VqrA+IWqbCdKKO9Qr2sKJRR1R2pJuXpKoY7TvN5AL6WgR5UA/LTfBZr9Le6rvvJuANjB1xMRQQawhec43HNewX9OeFZz+8UvQngHKAVbIpw3FJpNSIXXhhR/3WhPQoFZ3avZaC/Hoz26Byk4H0Dqv1eQfzQj3/gT8pXPon0FkYDfRr7V4LXdhIqgfAH54jnI77pst18g370E+XIH8u27Pb/xtn0HOguhZOykkKGrSSQSiUQikUgkEolEIpF4G2Ez4HykFtsJOASFau6LSJRW4FiUO3ARImfORKTaGFQgoQV4CJE4fSh8ci4iexb4bweFsOv2fRQG6UPKrmUofPdZjzvG7W5BedjuQeTM04iwmY4qxi4EbkBhwWMRofQEIqim+34lIpO6/KuG+XZSlIGhRoxQ4aoK7j8jy2aj4hSNiFyCjZV3ayjk3aWItAr0A3v4ukoA7kltqPAy4D98fRpFoYltdbSvL/Gaz/Pc/rO5V9cWob2hyAylX9gllIJhx7UepxHZehUi5hrRXixHe7MQ7dUMtHdPo2If96C9vYVCxrX+j/buPEqvqs76+DcgBGIYRInihCCjiDYOCLaNgAi0KLYTL4OAzKAMImJQlFGZZJ4kQECQMUASIAxJFEKYEiCEkJCEzEOlqlJVqVRVqlJJVUK/f+x91n2Itq1v+9oi+7NWVp48z73nnnvuzT97/c456B2Y5fud5GvP9XguR+9QCRTLNOTyrs1Az3+V2x+B3tHr0DtVh97hy9A7fSh6xzvQO78L+j/wFfR/4jzgCvR/JSIiIiIiIiLiLWnNKY7za36biXZCBVVn7e/Pd6DgBDQNt0xLnYAqsvqhQGV9tBZdqfy7HzgW2AGFV9uhdeiuQxsqtKDpsdPRFM4hKDS6ClX13YBCoId97CRU0bYIhU/tKOhbiUKrEm6tqvmu28d1o2qulf67BwVa5biyjmAPf369wP+qSrDXfwb7nnrQbsygjUPK2nvwx7vxlgCw7D5czPC5uK0etz245np/SXXfmht61K7f1+0xaPP3LTV/145dOW5VTVvlu6Xo+TehZ9OInlULCuQ6UQVjJ3q2k9GzvsHj8h0fexh6N4agd2Up8DH0DpXdqkej93J9FAD2Q+/gBP/+baq1Eg9F7y4+p+zkvDV614v5/Okp8hERERERERERb0mXocDpIrQeW5c/X4QqsG7354lot9SLUIXWszWfn6k5ZrQ/16EqsMtRsHQ52jhkln+fBwxD6/y1o8q2OcCjKNxpQuvEtbsPr6ApwcP9282o+qusEzjU13wKhTkT0RpxM4EpqNJsBqpKm4cq1xrdViuqWuukCgXbUKDW6b9XUFUN1q6H95dUCP659QVLRWIbVRDZ68/tVBV3f26dvr8k5CshZul/ufaqmnssAegSf9fisWnyWDV67Bo8lvM9tjM91hP9+Sk/i6Fu8xY/q5vc1nA05fcVP9t2P+sm9OwfQ+/Cxf7tVvSuzEXvzmz0LtW+W3ejqcgXoXdwIn/8fj5b83lkzTG3o3e9vPdd6P/CRcAYNF04IiIiIiIiIuIt62soQBmIpox2+/NAVI012J9HoemdA9GutxP9+Q4UAg1E4c3L/vxEzfEzUMhyFgpsznYbr/n3hSgkGoyCuTP83e2oanAWmorZiYKi6SgkehgFRdej6q+rUeXZb1FINcLnjkNh03QUPC1AFWJNqPpsifvYjkKtZSjs6kQBWBfVdNPlVFOGS+VcqbwrIdv/ayD4t/hTG/iVSsRSybiSqsqvTMvu8j12+p47PAbtHpMlVNN7J/i5vOCxfMVjOwttStLgse/ws1jmZzPHz+pxn3epr3eez73fz7oOPfvFKCy8xdcbSLXb8tm+h7OA29zHgWja7x/8+WX0Lg5E7+Yd/jzRbQxE7+Yofx6M3vXy3nf7OgPR/42yo3JERERERERExFveWig0Ku5CGy2A1km7xZ93pdqBdluq6ZM7UE1t/TKqBAPtxnq9Pz8IfBfYAAVPWwEnoUBmGxQQnYICnpnAgWga6VWocmyaPy9Ha7rVo8CnBHkTUNg1HQVftRt/lOm5JcBr9d+L/Psc/zbLf89DYVC9/y7TYDuogrQS/pXgrawf2EM1vba2Aq82pHtjje/WXHfwTx2/eo3j3/gT11rFm/tT1vJb4b6Xe1nueyubXnTX3Ptcj8kin7+0pp3Sr1KZuNjXmeZjJvhZTPbneqo1Ha/0ccP8HBf5Gc9AodvJfnZboXfiRLQW31K02cqh6B0CvVOn+fNY9M6B3sEd/HkmekdB7+yu/nwLeqdB7/hdVFaj/wsREREREREREf+UVqHdZLdE0yovAfZElVmvAAeg0KUTVUidhUKfa9BUyR4U1D3qtsahKqweNHWzg2pdvf9EoVAr1UYPc9G00dE+9mkUJDYD16Jg6XdufypwJqpWO9X9G4xCpinAUT7+RyiEus3fTwZe8nVL3xZTVc2t9v2VCsBGqurAbqrAsASItcFbF9UuxSV4LIFc+Vym+dauT7jmFN01dykuU4ZrK/reqDm/l2qX3a6aNkr/WqkCvW7fS4fvrVQAdq4xBo0+d4qPeQlVA07xWDZ4bFtQmPYaCvVu8bM41eN2pp/Vo6gar8XPstnP9mn3ZbSf/VwUvq5Cwd/ymrHqcZuza/r2nH97BL17PehdvMqff47e1U707n7H/TsD2AO943ehd/7DvDkEj4iIiIiIiIj4p7METbucTbXBxh/QOoHtaArlIBQmXQn8Ek3dvAJtzjAVOB/4KgpnTgQ+7Tb3RRsudAAb+t9lw4tr0U666/qaH0NBzTjg/WgTibPRtNF6FOgsRtM4X0LBUdkxtuw43O17WIFCom40dXg2qgZ70G0Ndp+GoaBrGlWFXC8K0pp9z7M9Rot9Tyt8TpluW6YJN1OtIViqAkv13UqqEHQlVVj4Bgrvuvy5hHolICzTeLv9fdm1t8u/Nddcv1QmtrqPdR6LJb6HlT6+hITLfc/TfM4w9/cWj9Fwj9lsj2G3x3RFzRiXnXlXoYCtzc9mlI/5ids6z89yErAZegcO8DNfhN6Bc9A7AXoH9gE2dp+29r8XonfrZPSu7Y/evanoXbzK930BeldXomBwCHqXnwee9DUX+94WeYwiIiIiIiIiIt4WfoiCE4BNUDBUlB1/QZs0HOXPF6GqQIBfAef6800onPkXtIbcpcBxKNC5CXgAhVBjUGVZJ1UQtgRVhC1Ha8nV+bhBKGQ6Gq3vdg0KfuYBH0dTei9FQd98X6MbTREtoVrZ1fZ5X2+4f5+M1jFchqYYl/XzenzcdJ/3GgrS2nxs6W+L76GeKuwrVXhLa+5tGVW4WI4pgWIJ6Uq7nVS7HJeqyR5fo8vXXFLTbrvPf819nU4VFq70nwk+9gkUok33eHV5TMrOv6U/M/zdfR7TBz3Gc4DtPfbHovBuop9NGwreyuYgD1NNO26tubdO9Oyf9O/3o3ejA70rl6IQ8pPoXboJOQ+9a6B372J/Pgq9m/DmnYHxdTfx5yvRux4RERERERER8bZzOJrqWXQDH0Drs41CYd/BKFh7DlUBPomqvZ5BAU+pdutGAVrZjGMhCnBeQGu9HYOqz34BfBEFXZuj9dnG+PqjgBPQtM2lwBG+zitox9keNH20159n+foPoxBsPJoO2gp8z9+N9vU7fXyZ/luq5YaiAOwRFAy2oMCtBH2L/F0JEFuopvjOQoFXl/vb68+zqUK+DqqQsIRt7VRhY4P/vcrnzHYbvVRBYh1a667cd4u/H1fT3xIM1vu76b6ndj+/MtW5TAOe6c+j/ec1j1mrx/AFf/eQx3hWzX3P9eehKAR82s9qKbC7n+EoP9Mx6BlvXvP7L9C7cAyqPn0B7fq80P2eRLUGYwky56F3oRGFmZejd/IB4CDgQl/zo6iitJvKbehdj4iIiIiIiIh42zkMBT4zUYD0n6iaaxYKkmaidQIfQqHPqf7TBnwBTc/sRNN9+6FKs/7ApijsWQ9VBM4B+gDHo7BoXxQMPYGq/Dqpwrc3UOBVj8KwG1CIdS5ay20KMACtVTcQVYo1u50ScpXde19wm2NQhdpitKZdHaoAnIPCsCW+xjQUanWgHW3LBiNlnbpJKAgs02nLdN0XqTbVWEm18cYs/70KhaXTqdbsm+7vVq1xbANVBd9ct12CsLJJyfMoFF1OFTw2uc8dKBSb5nsqQeRsj1mdx2Cxx2yM232JquKwrBv4G4/teWg9vUnAe/0MLvH37T5uju+7jmpK9XQ/2xtQcDwGTe0di96FPr7HT6J3pQ29O/19H/3QtOBO9K79m4851fcwF72bd6N3td79aEfvcguqaGwlAWBEREREREREvE2tizYA2Rp4NwpodvdvRwC3+/P7UMBU1KGNRACeBfZCmyuMR8HQKSjcGoOmhZYdapeikOkptAZdF1rf7SoUam2G1m87AwU/DWjdtwtRJd517kez21vl815FYdOxPudgNJ10AQqnOnztEqQNR8HQGLRW3TLfR5kKOwmFR8+gNRGX+7rlPkagAHGZ2y7TcUf7vlejMOolqqq/Jf6uVACWqr2ybuBL/m41qnYbRTXtuFxjMqrqK/1Y7L7d6/63uO9l6vNzPu9sj/kM33sJLpe67Rs8Vhd77BpQdd50j+043jxlucnPrB6tv7e/z9nYz24I1dp/V6P3odPXHuvnVqZmr3DfnvTYneJ+jEfv1Jd9b6B3ro5KE3o3Qe/qEf68O3q270E7T++F3vWIiIiIiIiIiLe9u1AABKq2egYFgx+nqrw6C1VZTUBr55UppfP9/Ry05towVO23GwoFB7vdy1FoBJq6ewKwIwqzrgTuREHTHKrNK0a6/REo5GlBa74di6apftvHT0aVYG+girdpaFrp0ajC7mIUInahjSRWUVXMNaGpojf5motQONXp76a4D6/5vGa04+0CVDHXhUKtBlRFWHYdfgmFdmVa73P+U6YLP+KxLLvyPkA1LbjL3y3wtZp97dfclymosrHTfV3kvt/oe2lyex0153Wh9fsu8Zgc4zGahirq3kBB4ase0294rI7xmLf4GYxwH0ahIK/Xx690Xy/3GOzoZzzcz/wC/wbagOQSFNg9g96Zq6jeo4Xudyd6117y92ehoLANvZvv8vn/5nYPRu9yRERERERERESs4Q4UtIylCoNaUbDWgqaYnouCmmHATsCBVGv4bYdCIdA6bEuAddCagm3A/wF+jUKospbgG6jSbLKveRLwKKpKWw9Ndf02mibahtaP+wMKhdpQ4DUPBXtL0K7E30Fh2JFutwmFYD0oRBrs+/qm76kFBUu9qMLsShTCDfO1VqPw7Ulf8073qwSN96HAbgZVEPg6mpra4XZHokq9bv+519/1+ph7fE4J/mb48xAU1L2Bqvvu9PdPuU+r3cdh7vOVvvcSyJXn9i3f880egx5ft8ljdKTP+7afwRKP6XyqqcadvtbPPQ47eqwnAuv7mT3q8+eigHKG+17W7utCod8BbuOjqDpvCaoaxNfczp+fQu/Yp32Pw9HU45E+ZwrVRiNzfPwE4HdERERERERERMQf+RyqrNoNhXbL0Pp+oGDpR/68J6ruA3gnCpIGAJ9CQc9VqLqrnWrdumVoPbvLUNB1HrAFCo/2Afqiiq+d0ZTNZahSbRxVSDYPVcOdiCq+LkXVX/PQ1NNrfa1FVBtzXORr3AJ8FoVmT7md1f5cdh7+JgpAy5Tbso7dwaiycDEKwVr9/SkoAOxFVXKjfc8TfdwyNJW1BH8rUXXgUKppuPf4mGU+ZyLVdOKpbns2mio93dfudF9moA02Xndfu9z3l1DgV4cq9Z7yvS6gCg4/4zGZ4DEqG44scr+u9ZjOQ1N7L/WYn+jnNN997kVTfa/xv7/kcV7oZ7qP72kLP/PX0TvwIlXlYovv+Wb0njWid2mA23wn8jR690DvYtnBekO3tQ16d38I7EJERERERERERPy3JqEqP4Cj0LTKnVG12EpUZfUs1VTdiahabQyaMnq9z+kDHAo86LYORDvzfgRNB52BquXqqaaqTkPB2P7AY6jqbB00NfUnwGm+5kwUWPWgqbq3+fx+wP0onBrsY7pQ5Vgr8DPga1Q7ALeiMGsI8FsUhP2KaqOQp1D12WIUnDW6ryPcnzb/mYOCu7mo4q3T130chX2lAvAef9flY57wOVPdRmnvdF9jla95q/swnCrYm402Q6lz34f4XlpRRV47sB9wJqqaG+mx6/bYPO+x6ufrl6nQZefimT7+NN/rq8A7UDXmI8DX0YYr06mmVtejasUS+G3uZ34Q8hB6J9byWFyH3pkx6B0qOwH3oHfsNvTOHYECxrvQOwnaaGYSERERERERERHxVxuLqq7GoxBpFarcuhdNHT0brbt2NXCOz9kPhVmggK8JbcawDwqRfosCnTfQlNWRqMrrDFSB2IjWddsEVap9Efi+zx1HtZbeXSi8mo12jf0FqlD7LgqQ2n1+mQK7GwqyzkfTkFe6zfGoau5otCtyB5re24nCr1+jHWTLtN6yMcedKMBqdn8eQiFaKwrBmnjzRiJdvt5dPrfb/x7iY8rmGlPdxn0oMO31b4f73GXuQ5kufLj72O0+v+J7OAwFah2+x+W+5197DGZ6TMoU6Ga3N9Nj+AwKXTfwGA/29cvahePc5vf9jJr8zD7u57oL8FP3dxQKLd9wu7/1uXuhNSabqDaVeQK9Q6Dp5tegd+xsH3cvqlosG4mMR+/oWCIiIiIiIiIi4q/2HeAHKMz5MAqY1vZvtwDH+fM+aH28dVGF4HLgClR9thIFRs+hSr8hKDC6Cq0FBwqabgQ28t+TUPjV4baGu/1RPuZ6tN7cB1EANAkFVz1oPbsfoYDsBBQsNaC16xqoqva+j6rUjkZTSXtQWPUYCuCOQ2vZdaFwbTSaDnuP+1t2sb0IVQouc/ul+u9ZNNW3VPjdjMKsUgF4jb/r9J/7fc5cVP3Y4DZ/5WuU3YR/4T7Mc59KZeNJ7nOr72GZ7+kKFATW+54f8RjUoYq8Bo/R9z1mp3kMe/y8JnmMP+Axv97PYDQK64a7Dx1+ZpNQ9eBG6B35uZ/xJeiZ747egRmo8rALvSOPuK/LUYXfuqgacB+ff5zbA72Dne7359E7egAREREREREREfE/NhPY1p9/hgK5n6JqtdUozJmCwqY70BTbS9B6cqAwZ5w/b4vCqpNRoLUKhVZPUwVa26CpuDuhKr96VBV2G9UU14dRMHYw8CFUQXgg2vG3BwVFz6KA6gA0XbQJGITCutUoMDvR5/4UVaitQuvcnYGmNj/ie1rp6x7sMSjr7v0eTYF9GgV/ZU2/i1B1ZJlyO9BtlgrAczxGXT5nKKpmex2FlmVTkJ/6mq1UO+0+itYsPMN9XeW+n4mCvR/43lajadE3+t539Fh0eGw6PVYXoI1aGjyWh/j6D6M1Ans99uf4WfT3s1nk51kC02eodoe+x8+4lerdGQ/s7c/X+Vl93ffU4L4u9/lDfH/lXcPtzCQiIiIiIiIiIv7mnkfVae1oSucyFN4cgtaF28vHnYyqwEAhXj0KbQ6l2uiiBF5PoCq8+4Bf+pwzUZD1Qf+9EAU+7WgNu5NQpdqraF3Ag1EIdZP71YumrJ6PNr7YFFW4daDQrwUFTEcB/4qmvw7yNXpRVduuqBLuD2ha7TJUnbc9CvWWU00FnomqCodTBX/Ho/X7lvu6h6JKvGX+c4y/K1WOP/Y5ZfOQB9zmDKqpv6Xi8GPuyzL37Qn3dVf3odd9utH39nnf63Lf+1Sfe4LHZiGqNBzscxd7LBehNfvWoaqsLDsEl+nCC9d4Vmf6Gf7S/T7a/VuGnnmZXn0oeifqga19zk3o3QG9S6/6uIt9/mI0/XkaehcjIiIiIiIiIuJv7AvAV9DOu+9A4VV//3YhcJY/fxaFROeiCrSygcV9aFrn7Whn12+hjSxAuw63oKDqdz6nBU2NbUabP6yFgp/Dge1QkDWDavrtU/7+OhQ+fRpVuHWhCrkxaH3ADX2dJaharQ2Fa8f5/AZUhbcUVcyNQRtk3I1CtEY0FbYOBYcPo1CrrFl4mttr9ngdSxUYHulrL/N3x/qYZp9zmttocb8f9jXqfM3FPu9u92mM+7jUfW5Awdrxbq8NVSUu8XU3RGv6jfGYlIq9T3vMrvMYjPV9tnuMp/r7w/0M1vIzafYzavEz+52v0+xnip/Lt9Azv93Xvo9qI5XH0LuyBL07oCrDC/25P3rX3oHWGdwPrQsYERERERERERH/nz0L7IsqzG5A4dQsFDotRxVo+6ONJy73OZ9E1Wt9gC1RcDUUhVIr0CYj30dh140+5yC0y+x+PrYXhVd3oICqbBpSh4KvK9A02cWoemwcqpxbG03lXejrTkZr6b0P+KrbmuJ2WtHGE+9Cm050ocrFa1Hg9iNUHbjC52yGQqsen/9V3/cyt3seCtfK7r7X+bt2H/Nrn7PIbZwNvB9Nh12Bphif6mtfS1VFOQHY2Mcv8bWnuN2vorX75qNqujbf+yMeizI2F3usVvo5He92yqYeHR7rhSiwG+Jn8QLVrr6DgN/42b3kPs9GlYxL0bPu4/H+hM+5wve9P3rWy93HWe7PDejd2he9axERERERERER8Xc2HIVGL6AAqBuFO33Qhg9n+LiPo+DnI2h32lY09bMRBVxPoGmtu/vffVD4tBRVho1EwdOraFrtg2jKKr7GeLQTcbP7cyHwDRSWbQvsiQKxpah6bbr7B9qIo8F9Gu+/dwI+hQK1ZWiH36EodPsGCilXoR1p+6Gqt+VouvEPUMXdqyjMexxV0D2KKuGm+88YfzfDx9T5mgQ7oQAAEs1JREFUnKfdxgK3eYevMcTXfMF9mOg+PeQ+trjPO/k+y700+B7xGL3uMVjqMdnDY9QE/IfHbqXH8mpfrzzHCz32p7uvq/xsznF7m/jZvYae5cfQs30NPetFHtPDgM1RMLmD2z7Dz6QPCom70Tv1gvsznIiIiIiIiIiI+LtbF+hb8+/ngd38eV8U3hwO3Iqq2lrQphAPoEALFAS1AOujoGsWCplmosqz19AGEd/w57V9ThuaslqmxN6LpqjeiqrrPogCsm5UiXaTr7MtqvhrROHbIhRmjXLbp1JVot3qfpyHNjCZ6/sYiCrapru/Zf3BZhRYjkOBXjOqwjsXVeu1o52Vv0O1uce5aLOUFrczztdrRlVx9e7/VF/zp+7DXODLaJ3DmWj9vVJ5earvZRRVEDnT9/xej0GL+zzb5wxF1YLX+b6395gu9xjf5fY/7LZf8zP5lj93+BoPekz6+Zm2+HmBpv0+gN6BJb6PW1EgOB74dx+3O29e468vetciIiIiIiIiIuJ/2aXAMBRGzQPeQOvDHY+mc5Y13d6PAqD10DpxU1BQtQyFSa+jnWoHoABpMxQCTUYVci2oQm4yCsV2RYHbB9DGFmXtu0Go0u4KX/fnPrcFVeO1oerAvmgq7UIUlt3j9rZGG4x0oUDuYLSpxWIUmJUNNZ5AgdkDaHrykyj8OhGFXLN9n/ugoKzDn7fybz0+dn2f2+u2tve/y8YlQ33to9DGK81o7cGD3dfavtehALav77HN91zuv2zWcYXHaBAKJbs9hh9A4eMuHuPJHvNmP4PJbnsztzfAz2wGCkY7gEl+tluhZ70EPXvQtOPfoHfjAfSuzEOB4DC0M3JERERERERERPyD+Q+0oUTZTGMEqnYDbTIxAwVB+6IwqQGFbiNRaLQRqvRahKaB9kObYExDU0xfRiHSR93OHOBLqHJsBtVU0fPQ9NINULVfMwoYG9AutA+7T/u63Zn+fhYKntZC6+ytRAHWYShMuxGtJdiBQsFvux9j0XTYG1Ag9hCaUluPdrEdSlWBd43/NPp6Q91+vc95yH0e5DbH+hrf9jU7UHh2k/t0GAoIV7rPfXwPs1AAN9P3uK/veYTvtcFj0uTrbeAxO59qavcMn/clj/V6HvslbmOpn83DflY7+T7W9bOc7me70NebD+ztdmaiKcugd2QEemeOR+/Q14iIiIiIiIiIiH94JwKDUQXYiSjA6kSVaENQ5Rlod9cFaP3ADf3bPFSRNtbnlLXihqMNOP4FBU89aLro6Sh8+ryPuxsFYI1oU4pWNH11PX//uH971dfaCE2PbXQ741GgNwtV153ja01F04t3QQFYIwrxzvDni/z30yj0+hpwC6qSW4qmRB/hz83+bX8fW84pbQx0240+fhdfexrVRiFbu483uM+L3MZ7fU/zqMLPkSi4W89j0eqxafSY3O2x+7yPP91j24OCyU967Mt6fDv42Yz1s5oH3InCxE+gZ/oOFEqORVOKn/I5Xeid2BKtUXgSERERERERERHxlrMVmlJaNqJ4kGoa8DtRqLUp2ml3GFrXrg0FVZ1oEwnQunQXoumjl6EpsnNRpd84NGUVNC12Hlr7rsltHeXfzkZh1mB/3+XjQRV5k1HF2ouowm1/FF7d7+sNR6HWEygMG4OCtwYU1G2NphH3ABe43R+jKr7ngf4owCu7AO/i78b5mB/7nAvdxktuc6CvMQtNB34I7T78CfepF62tt4773Oxzp6PqxatrxqbL1x7sPp3l347y900eu3lUu/ueQLUu4Txf7zI/iwvRswE9q0707NrQ8xmGnu0AFDa+08dehN6FW31v3ehdiYiIiIiIiIiIt6DtUQUYaK2+Kf48AIVQ01D12KNoDcDN/PvVaDpqf7SpRQ8KkQb52HN93CdRcHUpqtxrRZVsfdEOtwvRRhWj0LTWx4F3ozX46lCV2xxUoTfMbX4ChZN1KNC6HgWE2/r6K1DY1w/tbNyINsv4EbANWsPwVRSCHeT7fNL/vtFtzEUh4nPAgf73ZI/HNm5rudve3Nd62dce5L5MRgHcSPe13X0HBWwtaI3B01Bl4D7AezwGK33etzxGe3jM7qHapflSt7Gj2zzXYz/Ix/T42fT3syph42boWT7mPk3zGAzw76+hABT0bpSgNyIiIiIiIiIi3uL6oEBpPArYxqC14Epl2HBUjbY2miZbNvMYDvwe+KWP2xxVun0XrR3XDUxEYeOW/m17t7XEfw5H69c1Al8AfuC2W9HOxRuh0O4aFLRNdR93RJWAj6Lqt5tRkPUgWqtuOgq6nkfh2V6oUq4OhY4bow03ulAItwPwcX/u8m/v8rF1Pncvt/W8257maw1DU3tvdl8edd92dF+nuu/X+F42Ar7oe2zzPX/BY7Clx6TVz+QotAZfM7CFx2+ix3aEx7qZakff8/1Mhvva3cD3/OyOopom/E5UvTjGx413OyUUjoiIiIiIiIiIfzI/RtNR10Nh0SJUzQbwfRROLULh1yRUYQZVsLcdmrragaaPHg58CFUBbofCudGoUm4EsB8KGb+Owqhb0ZTbEcBn0DqCV6CKtHEoWDsbBVSHuN0ZKIj7rY/Zwu0sRyFZP2ATX2cF8E0UzN2CpsWOdx8PRRVx7f78Yf/W6WPX9rkr3Na73PZEX+tWVHE43n15zH1rcl/7uO+97ucuwJW+x88Bj/jeb3G7X/d1vurxWImCyAFUYeAHPcYNHvOzan7b0s/mVD+rcX52jX6W+NhFaGOV9VCQWKY7R0RERERERETE28DlqJKsTJldikIwgN3RdNG10W6081EQdj2astqCwjjQenQLUbXfTagy70D/tjcK3ZrQBiNDgDv82+dQANeMqg6/6OP2RlVsTb7upijEGo2CsutQdd/taDrwLOB3qDpvIgq66lGwVu97udJ9XIBCx91RsDbCfx/ic292W7NRRd9tvtZ1aNrtKBT2ber2mlB14D7+vJvvpdn39jnf650197/YY7K3fzvQY3aTx3Ah1VqGW3is9/DYL/c97IuCzqm+F9CU4qXoWb6Knu1lRERERERERETE29YuKNDaDYVaP0Xr5IGmu5aKsheBn6OAq79/PxsFco+jkK2JavOKz/u7C1DYNRVVwAGsj9bpG+vffo3Csh3QtNlHUaXc2cC6KFx8Ba3jNwFN//09qvq7FE3lnepz+6J1/XqpAsgDUWg4EQV5G7u9lTXHHORznnMbG7nNLl/j3VRTbl92X15x39Z1X1f5HjdE04xbfG+L0Q7Dr/ve8XHTPGYXoAByV/92sL+vR1WGo90+HvsmP4sXqSo23+vfb0TPsA96pqOAnYmIiIiIiIiIiLD3ocq04Wh9ujFoV9viLhQwHYk2FOlF6+j1RRVpr7uNX6F16aah3XTX9+cjUPXdUhSu7eR2D0NhVj3aJfcatNtufxR+rfD1+qKKxMdRdd29qBLvarQpxyS0c/BJKFQ7BgVkV6EqwQuBi9HU26vRun/H+LonAQ+4jbKD76a+RicK49Z2H6a4T2e5j0+4z4PdViOaZgzwKd/rUt/7ER6L9T020z1W56MNPGagysC+HtteX+8Ij/3dNc/jJV+71c+s3eMfERERERERERHxXxoC/ARVwa2LpuDuhHawvRZYjXaw3Qs4BVXkgarQZqOw63q0I24dqgbsj6a3rvbfA4ATUIC1B6qqq0dhVh//eQaFZg+i9e4e8bmlYm4cMBRNgz3S112AQjtqrvcz//vDqNKwrK0HqqRbTVX1OABNv+1ym+ug6b3P+5oXoLUAH3KfHnIfn67p9xM+9mU0NXeC73XAGmPQ32NT57G6wdedTVXR96DHeC+P+Wo0Ffk9fibzff8b+ZkNISIiIiIiIiIi4q80EFWpLQUGoSmpJ/u3vigwuw+tXXcbqkYrIdx3qaYR346CwQf824d9bjuaglum756HKukWAnOoNq3YFa1/Nx2Faeuiqrz5qPrvY8C5/n04Che/6WufgqYAD/afif6uwcdM8DnTgXPQdOTJbvsxX2uAf19ONV33dPexzu2eBzzreznI97bQ94rv/XqPRZm+e4h/G+Cxu91jeY/P7evfT0ZTegf5WUz3s4mIiIiIiIiIiPgfGYAq5EqotxMKprZBYdYyFICVqrVL0UYahwHz0Bp4V/i3vmhjkQdQyHWR29oXVc+dgqrchgIboEq9hSgMa0SVdDP9964ofFuAQrM+7lMj0Iam1wIcgKbRPlxzTyP83QH+99YorGt0G33QRiAL0IYau6xx7Ub3aYH7uAGqFFyNgro+wL/790t8r/f73kugd6XHZp7H6maPHR7LOjT1+Hr3byGaTgx6FqWSMiIiIiIiIiIi4m9uAtCB1q3bFFXL7effDkTh2gTgX9FU2Wb/fRCa6tsNfMbHfxEFYWNR1d5xqDLvQ8COaF3BFcCePn4bFPAtBb4O9ENrFY5EG2QcDfwQhYMnue3vuY9X+M+r/q7Jx8xBwd0x/m4U2uijn6+x1H9KqLin+/S6+/gh9/lY33fZ4GQ3H/8Z33O9x+CjHpMtPEYv8+aNS/Zzf9+L1lPscLsRERERERERERF/F++jqggE2B9tXvEs2kTjahSCFVeh6a0vo8DrXFSRty7aSKMLTWldx8f/BFW8NaHNLw5E03E/gTYHeQHtsrsn2pjjchTIlQ0y+rj9XuBr/m6A21tMVTn3NR/zkM/BbawALnPbe/paL/raO6LKvgPctyb39XSfvw4KBruAX/geH/Y9/5vHoBVVAJa+jvWYTfIYzvCYFpuSzT0iIiIiIiIiIuJ/2bNo44y1UHA2EVXEDUZr3S2kqnBbB02nrUcbXXwEbfpxOlrLbxyaZntHTft3Aj1oV+DaYG48qtjbAlUQ/hqFeM+h6r46YGfg92ia7oP+/Dn36yQfezcK/V5E1Yqj3I/aoPEc92HNfjX62I+h8PJp39NDvscZVOHmQR6LRR6b41AouJb/HOmxjIiIiIiIiIiI+Ie2O7ASrWu3IdWOt1sCt6Aps+1UO/Jugaa6tqLgcCNgmj9fjdbiG4nCtz4owGtxG5u7je1R5d0kYD1/dzwK7e5FId7a/tzj3/Cxk3zu9v5uczTVuBkFiH187ZHuy1Xu21Tf37Hue4fvBd9bWVtwsO99EVq/cGOPzQqPVURERERERERExFvOBmv8+y60scWV/u1MFKhtg6reJqNNMcp5+6EpuqNQYNYPVdoNR6Ha/mhTjmnAHmia8AX+9+nAVsAsX7cRhYafQ9OA7/JvW6GqvanAhb7+Hqhq7wRfYzGqHBznPmyMdkPupVr7cAOqHYmf9T2N9D1ugALDTt5cPQjQ/78Zw4iIiIiIiIiIiLeMjak2xgB4BwrrOtBU3D7AILQD79Go+u4GYDbwLmB9quq9k2raecDfHeJ/fwCt09cOHOXvvoIq9JagHXrxb20+9v3+7hC3dX9N+yf7u7tRteAm7tNv3MejUbB3g+/hJN/TNN9jsZvHICIiIiIiIiIi4m1jO+DTNf/uh6r1Zvo30Np8T6J1Be8APouCt89SbRjyKKrSWxvYB00PXozCOYAvobCvzZ9Bu/4u9rF7+9wH3VbZ2GNntNHHzmi9v4lo1+HL3Mb2qJKwwX0vPl3T/4iIiIiIiIiIiKjxPqo1/EBVdJPRBiDF/qjC72VUvbcuCu+eRAHirmh673wU1i0GvuA/jf5uAfBRH9sAPEUVIn7Abbfz5h15z3Ff1q75bj2yS29ERERERERERMTf3JFoA46iH9rF9+M1322LAr+da74r6wBuW/PdjsALvLmKbyPge3+77kZERERERERERERERERERERERERERERERERERERERERERERERERERERERERERERERERERERERERERERERERERERERERERERERERERERERERERERERERERERERERERERERERERERERERERERERERERERERERERERERERERERERERERERERERERERERERERERERERERERERERERERERERERERERERERERERERERERERERERERERERERERERERERERERERERERERERERERERERERERERERERERERERERERERERERERERERERERERERERERERERERERERERERERERERERERERERERERERERERERERERERERERERERERERERERERERERERERERERERERERERERERERERERERERERERERERERERERERERERERERERERERERERERERERERERERERERERERERERERERERERERERERERERERERERERERERERERERERERERERERERERERERERERERERERERERERERERERERERERERERERERERERERERERERERERERERERERERERERERERERERERERERERERERERERERERERERERERERERERERERET8df4vv02WREVZuRkAAAAASUVORK5CYII=</div></td></tr><tr><td style="font-weight:bold;vertical-align:top;">flash</td><td style="vertical-align:top;">:</td><td><div>None</div></td></tr></table></div>'
tRp127
sS'etype'
p128
S"<type 'exceptions.IndentationError'>"
p129
sS'date'
p130
S'Fri Apr 11 23:46:45 2014'
p131
sS'response'
p132
g68
(S's\xec1\x00\x00<div><table><tr><td style="font-weight:bold;vertical-align:top;">body</td><td style="vertical-align:top;">:</td><td><div>&lt;cStringIO.StringO object at 0x1977ca8&gt;</div></td></tr><tr><td style="font-weight:bold;vertical-align:top;">cookies</td><td style="vertical-align:top;">:</td><td><div><table><tr><td style="font-weight:bold;vertical-align:top;">session_id_imagine</td><td style="vertical-align:top;">:</td><td><div>127.0.0.1-42d985ff-c567-4921-882b-9845184777ee<table><tr><td style="font-weight:bold;vertical-align:top;">comment</td><td style="vertical-align:top;">:</td><td><div></div></td></tr><tr><td style="font-weight:bold;vertical-align:top;">domain</td><td style="vertical-align:top;">:</td><td><div></div></td></tr><tr><td style="font-weight:bold;vertical-align:top;">expires</td><td style="vertical-align:top;">:</td><td><div></div></td></tr><tr><td style="font-weight:bold;vertical-align:top;">httponly</td><td style="vertical-align:top;">:</td><td><div></div></td></tr><tr><td style="font-weight:bold;vertical-align:top;">max-age</td><td style="vertical-align:top;">:</td><td><div></div></td></tr><tr><td style="font-weight:bold;vertical-align:top;">path</td><td style="vertical-align:top;">:</td><td><div>/</div></td></tr><tr><td style="font-weight:bold;vertical-align:top;">secure</td><td style="vertical-align:top;">:</td><td><div></div></td></tr><tr><td style="font-weight:bold;vertical-align:top;">version</td><td style="vertical-align:top;">:</td><td><div></div></td></tr></table></div></td></tr></table></div></td></tr><tr><td style="font-weight:bold;vertical-align:top;">delimiters</td><td style="vertical-align:top;">:</td><td><div><table><tr><td><div>{{</div></td></tr><tr><td><div>}}</div></td></tr></table></div></td></tr><tr><td style="font-weight:bold;vertical-align:top;">files</td><td style="vertical-align:top;">:</td><td><div><table></table></div></td></tr><tr><td style="font-weight:bold;vertical-align:top;">flash</td><td style="vertical-align:top;">:</td><td><div></div></td></tr><tr><td style="font-weight:bold;vertical-align:top;">generic_patterns</td><td style="vertical-align:top;">:</td><td><div><table><tr><td><div>*</div></td></tr></table></div></td></tr><tr><td style="font-weight:bold;vertical-align:top;">google_analytics_id</td><td style="vertical-align:top;">:</td><td><div>None</div></td></tr><tr><td style="font-weight:bold;vertical-align:top;">headers</td><td style="vertical-align:top;">:</td><td><div><table><tr><td style="font-weight:bold;vertical-align:top;">X-Powered-By</td><td style="vertical-align:top;">:</td><td><div>web2py</div></td></tr></table></div></td></tr><tr><td style="font-weight:bold;vertical-align:top;">logo</td><td style="vertical-align:top;">:</td><td><div><a class="brand" href="http://www.web2py.com/"><b>web<span>2</span>py</b>&trade;&nbsp;</a></div></td></tr><tr><td style="font-weight:bold;vertical-align:top;">menu</td><td style="vertical-align:top;">:</td><td><div><table><tr><td><div><table><tr><td><div>Home</div></td></tr><tr><td><div>False</div></td></tr><tr><td><div>/imagine/default/index</div></td></tr><tr><td><div><table></table></div></td></tr></table></div></td></tr><tr><td><div><table><tr><td><div><span class="highlighted">web2py</span></div></td></tr><tr><td><div>False</div></td></tr><tr><td><div>http://web2py.com</div></td></tr><tr><td><div><table><tr><td><div><table><tr><td><div>My Sites</div></td></tr><tr><td><div>False</div></td></tr><tr><td><div>/admin/default/site</div></td></tr></table></div></td></tr><tr><td><div><table><tr><td><div>This App</div></td></tr><tr><td><div>False</div></td></tr><tr><td><div>/admin/default/design/imagine</div></td></tr><tr><td><div>[(&lt;lazyT &#x27;Controller&#x27;&gt;, False, &#x27;/admin/default/edit/imagine/controllers/logo.py&#x27;), (&lt;lazyT &#x27;View&#x27;&gt;, False, &#x27;/admin/default/edit/imagine/views/logo/index.html&#x27;), (&lt;lazyT &#x27;Layout&#x27;&gt;, False, &#x27;/admin/default/edit/imagine/views/layout.html&#x27;), (&lt;lazyT &#x27;Stylesheet&#x27;&gt;, False, &#x27;/admin/default/edit/imagine/static/css/web2py.css&#x27;), (&lt;lazyT &#x27;DB Model&#x27;&gt;, False, &#x27;/admin/default/edit/imagine/models/db.py&#x27;), (&lt;lazyT &#x27;Menu Model&#x27;&gt;, False, &#x27;/admin/default/edit/imagine/models/menu.py&#x27;), (&lt;lazyT &#x27;Database&#x27;&gt;, False, &#x27;/imagine/appadmin/index&#x27;), (&lt;lazyT &#x27;Errors&#x27;&gt;, False, &#x27;/admin/default/errors/imagine&#x27;), (&lt;lazyT &#x27;About&#x27;&gt;, False, &#x27;/admin/default/about/imagine&#x27;)]</div></td></tr></table></div></td></tr><tr><td><div><table><tr><td><div>web2py.com</div></td></tr><tr><td><div>False</div></td></tr><tr><td><div>http://www.web2py.com</div></td></tr><tr><td><div>[(&lt;lazyT &#x27;Download&#x27;&gt;, False, &#x27;http://www.web2py.com/examples/default/download&#x27;), (&lt;lazyT &#x27;Support&#x27;&gt;, False, &#x27;http://www.web2py.com/examples/default/support&#x27;), (&lt;lazyT &#x27;Demo&#x27;&gt;, False, &#x27;http://web2py.com/demo_admin&#x27;), (&lt;lazyT &#x27;Quick Examples&#x27;&gt;, False, &#x27;http://web2py.com/examples/default/examples&#x27;), (&lt;lazyT &#x27;FAQ&#x27;&gt;, False, &#x27;http://web2py.com/AlterEgo&#x27;), (&lt;lazyT &#x27;Videos&#x27;&gt;, False, &#x27;http://www.web2py.com/examples/default/videos/&#x27;), (&lt;lazyT &#x27;Free Applications&#x27;&gt;, False, &#x27;http://web2py.com/appliances&#x27;), (&lt;lazyT &#x27;Plugins&#x27;&gt;, False, &#x27;http://web2py.com/plugins&#x27;), (&lt;lazyT &#x27;Layouts&#x27;&gt;, False, &#x27;http://web2py.com/layouts&#x27;), (&lt;lazyT &#x27;Recipes&#x27;&gt;, False, &#x27;http://web2pyslices.com/&#x27;), (&lt;lazyT &#x27;Semantic&#x27;&gt;, False, &#x27;http://web2py.com/semantic&#x27;)]</div></td></tr></table></div></td></tr><tr><td><div><table><tr><td><div>Documentation</div></td></tr><tr><td><div>False</div></td></tr><tr><td><div>http://www.web2py.com/book</div></td></tr><tr><td><div>[(&lt;lazyT &#x27;Preface&#x27;&gt;, False, &#x27;http://www.web2py.com/book/default/chapter/00&#x27;), (&lt;lazyT &#x27;Introduction&#x27;&gt;, False, &#x27;http://www.web2py.com/book/default/chapter/01&#x27;), (&lt;lazyT &#x27;Python&#x27;&gt;, False, &#x27;http://www.web2py.com/book/default/chapter/02&#x27;), (&lt;lazyT &#x27;Overview&#x27;&gt;, False, &#x27;http://www.web2py.com/book/default/chapter/03&#x27;), (&lt;lazyT &#x27;The Core&#x27;&gt;, False, &#x27;http://www.web2py.com/book/default/chapter/04&#x27;), (&lt;lazyT &#x27;The Views&#x27;&gt;, False, &#x27;http://www.web2py.com/book/default/chapter/05&#x27;), (&lt;lazyT &#x27;Database&#x27;&gt;, False, &#x27;http://www.web2py.com/book/default/chapter/06&#x27;), (&lt;lazyT &#x27;Forms and Validators&#x27;&gt;, False, &#x27;http://www.web2py.com/book/default/chapter/07&#x27;), (&lt;lazyT &#x27;Email and SMS&#x27;&gt;, False, &#x27;http://www.web2py.com/book/default/chapter/08&#x27;), (&lt;lazyT &#x27;Access Control&#x27;&gt;, False, &#x27;http://www.web2py.com/book/default/chapter/09&#x27;), (&lt;lazyT &#x27;Services&#x27;&gt;, False, &#x27;http://www.web2py.com/book/default/chapter/10&#x27;), (&lt;lazyT &#x27;Ajax Recipes&#x27;&gt;, False, &#x27;http://www.web2py.com/book/default/chapter/11&#x27;), (&lt;lazyT &#x27;Components and Plugins&#x27;&gt;, False, &#x27;http://www.web2py.com/book/default/chapter/12&#x27;), (&lt;lazyT &#x27;Deployment Recipes&#x27;&gt;, False, &#x27;http://www.web2py.com/book/default/chapter/13&#x27;), (&lt;lazyT &#x27;Other Recipes&#x27;&gt;, False, &#x27;http://www.web2py.com/book/default/chapter/14&#x27;), (&lt;lazyT &#x27;Buy this book&#x27;&gt;, False, &#x27;http://stores.lulu.com/web2py&#x27;)]</div></td></tr></table></div></td></tr><tr><td><div><table><tr><td><div>Community</div></td></tr><tr><td><div>False</div></td></tr><tr><td><div>None</div></td></tr><tr><td><div>[(&lt;lazyT &#x27;Groups&#x27;&gt;, False, &#x27;http://www.web2py.com/examples/default/usergroups&#x27;), (&lt;lazyT &#x27;Twitter&#x27;&gt;, False, &#x27;http://twitter.com/web2py&#x27;), (&lt;lazyT &#x27;Live Chat&#x27;&gt;, False, &#x27;http://webchat.freenode.net/?channels=web2py&#x27;)]</div></td></tr></table></div></td></tr><tr><td><div><table><tr><td><div>Plugins</div></td></tr><tr><td><div>False</div></td></tr><tr><td><div>None</div></td></tr><tr><td><div>[(&#x27;plugin_wiki&#x27;, False, &#x27;http://web2py.com/examples/default/download&#x27;), (&lt;lazyT &#x27;Other Plugins&#x27;&gt;, False, &#x27;http://web2py.com/plugins&#x27;), (&lt;lazyT &#x27;Layout Plugins&#x27;&gt;, False, &#x27;http://web2py.com/layouts&#x27;)]</div></td></tr></table></div></td></tr></table></div></td></tr></table></div></td></tr></table></div></td></tr><tr><td style="font-weight:bold;vertical-align:top;">meta</td><td style="vertical-align:top;">:</td><td><div><table><tr><td style="font-weight:bold;vertical-align:top;">author</td><td style="vertical-align:top;">:</td><td><div>Your Name &lt;you@example.com&gt;</div></td></tr><tr><td style="font-weight:bold;vertical-align:top;">description</td><td style="vertical-align:top;">:</td><td><div>a cool new app</div></td></tr><tr><td style="font-weight:bold;vertical-align:top;">generator</td><td style="vertical-align:top;">:</td><td><div>Web2py Web Framework</div></td></tr><tr><td style="font-weight:bold;vertical-align:top;">keywords</td><td style="vertical-align:top;">:</td><td><div>web2py, python, framework</div></td></tr></table></div></td></tr><tr><td style="font-weight:bold;vertical-align:top;">models_to_run</td><td style="vertical-align:top;">:</td><td><div><table><tr><td><div>^\\w+\\.py$</div></td></tr><tr><td><div>^logo/\\w+\\.py$</div></td></tr><tr><td><div>^logo/index/\\w+\\.py$</div></td></tr></table></div></td></tr><tr><td style="font-weight:bold;vertical-align:top;">postprocessing</td><td style="vertical-align:top;">:</td><td><div><table></table></div></td></tr><tr><td style="font-weight:bold;vertical-align:top;">session_client</td><td style="vertical-align:top;">:</td><td><div>127.0.0.1</div></td></tr><tr><td style="font-weight:bold;vertical-align:top;">session_cookie_compression_level</td><td style="vertical-align:top;">:</td><td><div>None</div></td></tr><tr><td style="font-weight:bold;vertical-align:top;">session_cookie_expires</td><td style="vertical-align:top;">:</td><td><div>None</div></td></tr><tr><td style="font-weight:bold;vertical-align:top;">session_cookie_key</td><td style="vertical-align:top;">:</td><td><div>None</div></td></tr><tr><td style="font-weight:bold;vertical-align:top;">session_data_name</td><td style="vertical-align:top;">:</td><td><div>session_data_imagine</div></td></tr><tr><td style="font-weight:bold;vertical-align:top;">session_file</td><td style="vertical-align:top;">:</td><td><div>&lt;open file &#x27;/home/chandan/web2py/applications/imagine/sessions/127.0.0.1-42d985ff-c567-4921-882b-9845184777ee&#x27;, mode &#x27;rb+&#x27; at 0x7f33bc368db0&gt;</div></td></tr><tr><td style="font-weight:bold;vertical-align:top;">session_filename</td><td style="vertical-align:top;">:</td><td><div>/home/chandan/web2py/applications/imagine/sessions/127.0.0.1-42d985ff-c567-4921-882b-9845184777ee</div></td></tr><tr><td style="font-weight:bold;vertical-align:top;">session_hash</td><td style="vertical-align:top;">:</td><td><div>ecac587f78f7a227535eea47bd4d26da</div></td></tr><tr><td style="font-weight:bold;vertical-align:top;">session_id</td><td style="vertical-align:top;">:</td><td><div>127.0.0.1-42d985ff-c567-4921-882b-9845184777ee</div></td></tr><tr><td style="font-weight:bold;vertical-align:top;">session_id_name</td><td style="vertical-align:top;">:</td><td><div>session_id_imagine</div></td></tr><tr><td style="font-weight:bold;vertical-align:top;">session_locked</td><td style="vertical-align:top;">:</td><td><div>True</div></td></tr><tr><td style="font-weight:bold;vertical-align:top;">session_masterapp</td><td style="vertical-align:top;">:</td><td><div>imagine</div></td></tr><tr><td style="font-weight:bold;vertical-align:top;">session_new</td><td style="vertical-align:top;">:</td><td><div>False</div></td></tr><tr><td style="font-weight:bold;vertical-align:top;">session_storage_type</td><td style="vertical-align:top;">:</td><td><div>file</div></td></tr><tr><td style="font-weight:bold;vertical-align:top;">status</td><td style="vertical-align:top;">:</td><td><div>200</div></td></tr><tr><td style="font-weight:bold;vertical-align:top;">subtitle</td><td style="vertical-align:top;">:</td><td><div></div></td></tr><tr><td style="font-weight:bold;vertical-align:top;">title</td><td style="vertical-align:top;">:</td><td><div>Imagine</div></td></tr><tr><td style="font-weight:bold;vertical-align:top;">view</td><td style="vertical-align:top;">:</td><td><div>logo/index.html</div></td></tr></table></div>'
tRp133
sS'locals'
p134
(dp135
g4
S"'/home/chandan/web2py/applications/imagine/controllers/logo.py'"
p136
sg6
S'\'@auth.requires_login()\\ndef index():\\n  #  editima...rn "True"\\nresponse._vars=response._caller(index)\\n\''
p137
sssS'traceback'
p138
S'Traceback (most recent call last):\n  File "/home/chandan/web2py/gluon/restricted.py", line 216, in restricted\n    ccode = compile2(code, layer)\n  File "/home/chandan/web2py/gluon/restricted.py", line 199, in compile2\n    return compile(code.rstrip().replace(\'\\r\\n\', \'\\n\') + \'\\n\', layer, \'exec\')\n  File "/home/chandan/web2py/applications/imagine/controllers/logo.py", line 5\n    print editimage\n                  ^\nIndentationError: unindent does not match any outer indentation level\n'
p139
s.